
hw04_debugging.ino.elf:     file format elf32-avr

Sections:
Idx Name          Size      VMA       LMA       File off  Algn
  0 .data         0000004e  00800100  000021b0  00002244  2**0
                  CONTENTS, ALLOC, LOAD, DATA
  1 .text         000021b0  00000000  00000000  00000094  2**1
                  CONTENTS, ALLOC, LOAD, READONLY, CODE
  2 .bss          000000a6  0080014e  0080014e  00002292  2**0
                  ALLOC
  3 .stab         00001224  00000000  00000000  00002294  2**2
                  CONTENTS, READONLY, DEBUGGING
  4 .stabstr      000011f2  00000000  00000000  000034b8  2**0
                  CONTENTS, READONLY, DEBUGGING
  5 .comment      00000011  00000000  00000000  000046aa  2**0
                  CONTENTS, READONLY
  6 .note.gnu.avr.deviceinfo 00000040  00000000  00000000  000046bc  2**2
                  CONTENTS, READONLY
  7 .debug_info   000005f4  00000000  00000000  000046fc  2**0
                  CONTENTS, READONLY, DEBUGGING
  8 .debug_abbrev 000005a2  00000000  00000000  00004cf0  2**0
                  CONTENTS, READONLY, DEBUGGING
  9 .debug_line   0000001a  00000000  00000000  00005292  2**0
                  CONTENTS, READONLY, DEBUGGING
 10 .debug_str    00000208  00000000  00000000  000052ac  2**0
                  CONTENTS, READONLY, DEBUGGING
SYMBOL TABLE:
00800100 l    d  .data	00000000 .data
00000000 l    d  .text	00000000 .text
0080014e l    d  .bss	00000000 .bss
00000000 l    d  .stab	00000000 .stab
00000000 l    d  .stabstr	00000000 .stabstr
00000000 l    d  .comment	00000000 .comment
00000000 l    d  .note.gnu.avr.deviceinfo	00000000 .note.gnu.avr.deviceinfo
00000000 l    d  .debug_info	00000000 .debug_info
00000000 l    d  .debug_abbrev	00000000 .debug_abbrev
00000000 l    d  .debug_line	00000000 .debug_line
00000000 l    d  .debug_str	00000000 .debug_str
00000000 l    df *ABS*	00000000 
0000003e l       *ABS*	00000000 __SP_H__
0000003d l       *ABS*	00000000 __SP_L__
0000003f l       *ABS*	00000000 __SREG__
00000000 l       *ABS*	00000000 __tmp_reg__
00000001 l       *ABS*	00000000 __zero_reg__
00000104 l     F .text	00000054 _ZN5Print5writeEPKhj
00000158 l     F .text	00000002 _ZN5Print5flushEv
0000015a l     F .text	00000006 _ZN5Print17availableForWriteEv
00000160 l     F .text	0000001e _ZN14HardwareSerial17availableForWriteEv
0000017e l     F .text	00000028 _ZN14HardwareSerial4readEv
000001a6 l     F .text	0000001c _ZN14HardwareSerial4peekEv
000001c2 l     F .text	00000018 _ZN14HardwareSerial9availableEv
000001da l     F .text	00000014 _Z17Serial0_availablev
00800157 l     O .bss	0000009d Serial
000001ee l     F .text	00000044 _ZN14HardwareSerial17_tx_udr_empty_irqEv
00000232 l     F .text	0000009a _ZN14HardwareSerial5writeEh
000002cc l     F .text	00000044 _ZN14HardwareSerial5flushEv
00000310 l     F .text	00000014 _Z14serialEventRunv
00000324 l     F .text	00000034 _Z15iii1iii1iii1ii1v
00800100 l     O .data	00000002 iiii1i1ii1i1ii
00800102 l     O .data	00000002 i1ii1i1iii11ii
0080010e l     O .data	00000002 ii1ii1i11ii1i1
00000358 l     F .text	00000324 _Z6setMemc
00800118 l     O .data	00000002 i1i11i11ii1i1
00800116 l     O .data	00000002 i1ii1i11ii1i1
00800114 l     O .data	00000002 i1i1iiii11ii
00800112 l     O .data	00000002 iiii1i1iii1ii
00800110 l     O .data	00000002 i1ii1i1iii1ii
0080010c l     O .data	00000002 ii11i11ii1i1
0080010a l     O .data	00000002 i1i1ii1ii11ii
00800108 l     O .data	00000002 i1ii1iii1iii
0000067c l     F .text	00000044 _ZN5Print7printlnEPKc.constprop.6
000006c0 l     F .text	00000004 __cxa_pure_virtual
00800153 l     O .bss	00000004 timer0_millis
00800152 l     O .bss	00000001 timer0_fract
0080014e l     O .bss	00000004 timer0_overflow_count
00800106 l     O .data	00000002 iiii11111iii11ii
00800104 l     O .data	00000002 iiiii1iii1iii
0000009a l     O .text	00000014 digital_pin_to_timer_PGM
00000086 l     O .text	00000014 digital_pin_to_bit_mask_PGM
00000072 l     O .text	00000014 digital_pin_to_port_PGM
00000068 l     O .text	0000000a port_to_input_PGM
000020ec l     F .text	0000005a _GLOBAL__sub_I___vector_18
0080011a l     O .data	00000012 _ZTV14HardwareSerial
00000000 l    df *ABS*	00000000 _clear_bss.o
000000dc l       .text	00000000 .do_clear_bss_start
000000da l       .text	00000000 .do_clear_bss_loop
00000000 l    df *ABS*	00000000 _divmodhi4.o
0000215e l       .text	00000000 __divmodhi4_neg1
00002166 l       .text	00000000 __divmodhi4_neg2
0000216c l       .text	00000000 __divmodhi4_exit
00000000 l    df *ABS*	00000000 _udivmodhi4.o
00002184 l       .text	00000000 __udivmodhi4_ep
00002176 l       .text	00000000 __udivmodhi4_loop
00000000 l    df *ABS*	00000000 _exit.o
000021ae l       .text	00000000 __stop_program
00000100  w      .text	00000000 __vector_22
00000100  w      .text	00000000 __vector_1
00000800 g       *ABS*	00000000 __DATA_REGION_LENGTH__
00000000 g       *ABS*	00000000 __TEXT_REGION_ORIGIN__
0000216e g       .text	00000028 .hidden __udivmodhi4
00000068 g       .text	00000000 __trampolines_start
000021b0 g       .text	00000000 _etext
00000100  w      .text	00000000 __vector_24
00000100  w      .text	00000000 __vector_12
00000100 g       .text	00000000 __bad_interrupt
000021fe g       *ABS*	00000000 __data_load_end
00000100  w      .text	00000000 __vector_6
00000068 g       .text	00000000 __trampolines_end
00000100  w      .text	00000000 __vector_3
00000100  w      .text	00000000 __vector_23
000021b0 g       *ABS*	00000000 __data_load_start
000000b0 g       .text	00000000 __dtors_end
008001f4 g       .bss	00000000 __bss_end
00000400 g       *ABS*	00000000 __LOCK_REGION_LENGTH__
000021a2 g     F .text	0000000a abort
00000100  w      .text	00000000 __vector_25
00000100  w      .text	00000000 __vector_11
000000b0  w      .text	00000000 __init
00000100  w      .text	00000000 __vector_13
00000100  w      .text	00000000 __vector_17
00000758 g     F .text	0000004c __vector_19
00000100  w      .text	00000000 __vector_7
000000d2 g       .text	00000010 .hidden __do_clear_bss
00810000 g       .stab	00000000 __eeprom_end
00000000  w      *UND*	00000000 _Z11serialEventv
00000000 g       .text	00000000 __vectors
0080014e g       .data	00000000 __data_end
00000000  w      .text	00000000 __vector_default
00002146 g       .text	00000028 .hidden __divmodhi4
00000100  w      .text	00000000 __vector_5
00000400 g       *ABS*	00000000 __SIGNATURE_REGION_LENGTH__
00002196 g       .text	0000000c .hidden __tablejump2__
000000ae g       .text	00000000 __ctors_start
000000bc g       .text	00000016 .hidden __do_copy_data
0080014e g       .bss	00000000 __bss_start
00000808 g     F .text	000018e4 main
00000100  w      .text	00000000 __vector_4
00800100 g       *ABS*	00000000 __DATA_REGION_ORIGIN__
00000000  w      *ABS*	00000000 __heap_end
00000100  w      .text	00000000 __vector_9
00000100  w      .text	00000000 __vector_2
00000400 g       *ABS*	00000000 __USER_SIGNATURE_REGION_LENGTH__
00000100  w      .text	00000000 __vector_21
00000100  w      .text	00000000 __vector_15
000000b0 g       .text	00000000 __dtors_start
000000b0 g       .text	00000000 __ctors_end
000008ff  w      *ABS*	00000000 __stack
0080014e g       .data	00000000 _edata
008001f4 g       .stab	00000000 _end
00000100  w      .text	00000000 __vector_8
000021ac  w      .text	00000000 .hidden exit
00002146 g       .text	00000000 .hidden _div
00000400 g       *ABS*	00000000 __EEPROM_REGION_LENGTH__
000021ac g       .text	00000000 .hidden _exit
00000100  w      .text	00000000 __vector_14
00000100  w      .text	00000000 __vector_10
000006c4 g     F .text	00000094 __vector_16
00800100 g       .data	00000000 __data_start
000007a4 g     F .text	00000064 __vector_18
00000003 g       *ABS*	00000000 __FUSE_REGION_LENGTH__
00008000 g       *ABS*	00000000 __TEXT_REGION_LENGTH__
00000100  w      .text	00000000 __vector_20
000000e2 g       .text	00000016 .hidden __do_global_ctors


Contents of section .data:
 800100 0b007f00 1d000500 0d007700 77005500  ..........w.w.U.
 800110 0f002700 77001500 77000000 00001901  ..'.w...w.......
 800120 8200b000 6601e100 bf00d300 0d0a0053  ....f..........S
 800130 74617274 696e6720 75702e2e 2e004669  tarting up....Fi
 800140 6e697368 65642073 65747570 0000      nished setup..  
Contents of section .text:
 0000 0c945800 0c948000 0c948000 0c948000  ..X.............
 0010 0c948000 0c948000 0c948000 0c948000  ................
 0020 0c948000 0c948000 0c948000 0c948000  ................
 0030 0c948000 0c948000 0c948000 0c948000  ................
 0040 0c946203 0c948000 0c94d203 0c94ac03  ..b.............
 0050 0c948000 0c948000 0c948000 0c948000  ................
 0060 0c948000 0c948000 00000000 23002600  ............#.&.
 0070 29000404 04040404 04040202 02020202  )...............
 0080 03030303 03030102 04081020 40800102  ........... @...
 0090 04081020 01020408 10200000 00080002  ... ..... ......
 00a0 01000003 04070000 00000000 00007610  ..............v.
 00b0 11241fbe cfefd8e0 debfcdbf 11e0a0e0  .$..............
 00c0 b1e0e0eb f1e202c0 05900d92 ae34b107  .............4..
 00d0 d9f721e0 aee4b1e0 01c01d92 a43fb207  ..!..........?..
 00e0 e1f710e0 c8e5d0e0 04c02197 fe010e94  ..........!.....
 00f0 cb10c735 d107c9f7 0e940404 0c94d610  ...5............
 0100 0c940000 cf92df92 ef92ff92 0f931f93  ................
 0110 cf93df93 6c017a01 8b01c0e0 d0e0ce15  ....l.z.........
 0120 df0581f0 d8016d91 8d01d601 ed91fc91  ......m.........
 0130 0190f081 e02dc601 0995892b 11f02196  .....-.....+..!.
 0140 eecf7e01 c701df91 cf911f91 0f91ff90  ..~.............
 0150 ef90df90 cf900895 089580e0 90e00895  ................
 0160 fc01538d 448d252f 30e0842f 90e0821b  ..S.D.%/0../....
 0170 930b5417 10f0cf96 08950197 0895fc01  ..T.............
 0180 918d828d 981761f0 828ddf01 a80fb11d  ......a.........
 0190 5d968c91 928d9f5f 9f73928f 90e00895  ]......_.s......
 01a0 8fef9fef 0895fc01 918d828d 981731f0  ..............1.
 01b0 828de80f f11d858d 90e00895 8fef9fef  ................
 01c0 0895fc01 918d228d 892f90e0 805c9f4f  ......"../...\.O
 01d0 821b9109 8f739927 089587e5 91e00e94  .....s.'........
 01e0 e10021e0 892b09f4 20e0822f 0895fc01  ..!..+.. ../....
 01f0 848ddf01 a80fb11d a35abf4f 2c91848d  .........Z.O,...
 0200 90e00196 8f739927 848fa689 b7892c93  .....s.'......,.
 0210 a089b189 8c918370 80648c93 938d848d  .......p.d......
 0220 981306c0 0288f389 e02d8081 8f7d8083  .........-...}..
 0230 0895ef92 ff920f93 1f93cf93 df93ec01  ................
 0240 81e0888f 9b8d8c8d 981305c0 e889f989  ................
 0250 808185fd 26c0f62e 0b8d10e0 0f5f1f4f  ....&........_.O
 0260 0f731127 e02e8c8d e8120cc0 0fb607fc  .s.'............
 0270 facfe889 f9898081 85fff5cf ce010e94  ................
 0280 f700f1cf 8b8dfe01 e80ff11d e35aff4f  .............Z.O
 0290 f0829fb7 f8940b8f ea89fb89 80818062  ...............b
 02a0 0ac09fb7 f894ee89 ff896083 e889f989  ..........`.....
 02b0 80818370 80648083 9fbf81e0 90e0df91  ...p.d..........
 02c0 cf911f91 0f91ff90 ef900895 cf93df93  ................
 02d0 ec01888d 8823c9f0 ea89fb89 808185fd  .....#..........
 02e0 05c0a889 b9898c91 86fd0fc0 0fb607fc  ................
 02f0 f5cf8081 85fff2cf a889b989 8c9185ff  ................
 0300 edcfce01 0e94f700 e7cfdf91 cf910895  ................
 0310 80e090e0 892b29f0 0e94ed00 81110c94  .....+).........
 0320 00000895 20910001 30910101 80910201  .... ...0.......
 0330 90910301 28173907 54f48091 0e019091  ....(.9.T.......
 0340 0f010196 90930f01 80930e01 ebcf8091  ................
 0350 00019091 01010895 1f93cf93 df9300d0  ................
 0360 cdb7deb7 182f2091 18013091 19018091  ...../ ...0.....
 0370 16019091 17012817 390719f4 0e949201  ......(.9.......
 0380 08c08091 16019091 17019093 15018093  ................
 0390 14012091 12013091 13018091 10019091  .. ...0.........
 03a0 11012817 390749f4 80911801 90911901  ..(.9.I.........
 03b0 90930f01 80930e01 0ec08091 12019091  ................
 03c0 13016091 16017091 17010e94 a3109093  ..`...p.........
 03d0 0d018093 0c012091 16013091 17018091  ...... ...0.....
 03e0 16019091 17012817 390719f0 0e949201  ......(.9.......
 03f0 08c08091 0a019091 0b019093 0f018093  ................
 0400 0e018091 0a019091 0b016091 18017091  ..........`...p.
 0410 19010e94 a3109093 0d018093 0c012091  .............. .
 0420 08013091 09018091 08019091 09012817  ..0...........(.
 0430 390719f0 0e949201 08c08091 16019091  9...............
 0440 17019093 15018093 14011a82 19822981  ..............).
 0450 3a818091 00019091 01012817 3907a4f4  :.........(.9...
 0460 89819a81 60910001 70910101 0e94a310  ....`...p.......
 0470 fc01ee0f ff1ff85f 11821082 89819a81  ......._........
 0480 01969a83 8983e3cf 212f110f 330b6091  ........!/..3.`.
 0490 00017091 0101c901 0e94a310 fc01ee0f  ..p.............
 04a0 ff1ff85f 31832083 20911801 30911901  ..._1. . ...0...
 04b0 80911601 90911701 28173907 19f40e94  ........(.9.....
 04c0 920108c0 80911601 90911701 90931501  ................
 04d0 80931401 20911201 30911301 80911001  .... ...0.......
 04e0 90911101 28173907 49f48091 18019091  ....(.9.I.......
 04f0 19019093 0f018093 0e010ec0 80911201  ................
 0500 90911301 60911601 70911701 0e94a310  ....`...p.......
 0510 90930d01 80930c01 20911601 30911701  ........ ...0...
 0520 80911601 90911701 28173907 19f00e94  ........(.9.....
 0530 920108c0 80910a01 90910b01 90930f01  ................
 0540 80930e01 80910a01 90910b01 60911801  ............`...
 0550 70911901 0e94a310 90930d01 80930c01  p...............
 0560 20910801 30910901 80910801 90910901   ...0...........
 0570 28173907 19f00e94 920108c0 80911601  (.9.............
 0580 90911701 90931501 80931401 20911201  ............ ...
 0590 30911301 80911201 90911301 28173907  0...........(.9.
 05a0 49f08091 18019091 19019093 0d018093  I...............
 05b0 0c0108c0 80911601 90911701 90931501  ................
 05c0 80931401 20910a01 30910b01 80910a01  .... ...0.......
 05d0 90910b01 28173907 19f00e94 92010ec0  ....(.9.........
 05e0 80911201 90911301 60911601 70911701  ........`...p...
 05f0 0e94a310 90930d01 80930c01 80910900  ................
 0600 90910a00 90931501 80931401 20911001  ............ ...
 0610 30911101 80911001 90911101 28173907  0...........(.9.
 0620 19f00e94 920108c0 80910a01 90910b01  ................
 0630 90930f01 80930e01 20911601 30911701  ........ ...0...
 0640 80911801 90911901 28173907 49f48091  ........(.9.I...
 0650 16019091 17019093 15018093 140108c0  ................
 0660 80910a01 90910b01 90930f01 80930e01  ................
 0670 0f900f90 df91cf91 1f910895 cf93df93  ................
 0680 009779f0 fc010190 0020e9f7 3197af01  ..y...... ..1...
 0690 481b590b bc0187e5 91e00e94 8200ec01  H.Y.............
 06a0 02c0c0e0 d0e042e0 50e06ce2 71e087e5  ......B.P.l.q...
 06b0 91e00e94 82008c0f 9d1fdf91 cf910895  ................
 06c0 0e94d110 1f920f92 0fb60f92 11242f93  .............$/.
 06d0 3f938f93 9f93af93 bf938091 53019091  ?...........S...
 06e0 5401a091 5501b091 56013091 520123e0  T...U...V.0.R.#.
 06f0 230f2d37 20f40196 a11db11d 05c026e8  #.-7 .........&.
 0700 230f0296 a11db11d 20935201 80935301  #....... .R...S.
 0710 90935401 a0935501 b0935601 80914e01  ..T...U...V...N.
 0720 90914f01 a0915001 b0915101 0196a11d  ..O...P...Q.....
 0730 b11d8093 4e019093 4f01a093 5001b093  ....N...O...P...
 0740 5101bf91 af919f91 8f913f91 2f910f90  Q.........?./...
 0750 0fbe0f90 1f901895 1f920f92 0fb60f92  ................
 0760 11242f93 3f934f93 5f936f93 7f938f93  .$/.?.O._.o.....
 0770 9f93af93 bf93ef93 ff9387e5 91e00e94  ................
 0780 f700ff91 ef91bf91 af919f91 8f917f91  ................
 0790 6f915f91 4f913f91 2f910f90 0fbe0f90  o._.O.?./.......
 07a0 1f901895 1f920f92 0fb60f92 11242f93  .............$/.
 07b0 8f939f93 ef93ff93 e0916701 f0916801  ..........g...h.
 07c0 8081e091 6d01f091 6e0182fd 12c09081  ....m...n.......
 07d0 80917001 8f5f8f73 20917101 821751f0  ..p.._.s .q...Q.
 07e0 e0917001 f0e0e95a fe4f958f 80937001  ..p....Z.O....p.
 07f0 01c08081 ff91ef91 9f918f91 2f910f90  ............/...
 0800 0fbe0f90 1f901895 cf93df93 00d000d0  ................
 0810 cdb7deb7 789484b5 826084bd 84b58160  ....x....`.....`
 0820 84bd85b5 826085bd 85b58160 85bd8091  .....`.....`....
 0830 6e008160 80936e00 10928100 80918100  n..`..n.........
 0840 82608093 81008091 81008160 80938100  .`.........`....
 0850 80918000 81608093 80008091 b1008460  .....`.........`
 0860 8093b100 8091b000 81608093 b0008091  .........`......
 0870 7a008460 80937a00 80917a00 82608093  z..`..z...z..`..
 0880 7a008091 7a008160 80937a00 80917a00  z...z..`..z...z.
 0890 80688093 7a001092 c100e091 6701f091  .h..z.......g...
 08a0 680182e0 8083e091 6301f091 64011082  h.......c...d...
 08b0 e0916501 f0916601 8fec8083 10926f01  ..e...f.......o.
 08c0 e0916b01 f0916c01 86e08083 e0916901  ..k...l.......i.
 08d0 f0916a01 80818061 8083e091 6901f091  ..j....a....i...
 08e0 6a018081 88608083 e0916901 f0916a01  j....`....i...j.
 08f0 80818068 8083e091 6901f091 6a018081  ...h....i...j...
 0900 8f7d8083 8fe291e0 0e943e03 20911801  .}........>. ...
 0910 30911901 80911801 90911901 28173907  0...........(.9.
 0920 19f00e94 920108c0 80910a01 90910b01  ................
 0930 90930f01 80930e01 20911801 30911901  ........ ...0...
 0940 80910a01 90910b01 28173907 79f42091  ........(.9.y. .
 0950 14013091 15018091 06019091 0701820f  ..0.............
 0960 931f9093 0f018093 0e0108c0 80911601  ................
 0970 90911701 90931501 80931401 20910401  ............ ...
 0980 30910501 80910401 90910501 28173907  0...........(.9.
 0990 19f00e94 920108c0 80911601 90911701  ................
 09a0 90931501 80931401 80910b00 90910c00  ................
 09b0 90930d01 80930c01 20911601 30911701  ........ ...0...
 09c0 80911601 90911701 28173907 49f08091  ........(.9.I...
 09d0 0a019091 0b019093 15018093 140108c0  ................
 09e0 80910a01 90910b01 90930f01 80930e01  ................
 09f0 20911201 30911301 80910401 90910501   ...0...........
 0a00 28173907 19f40e94 920108c0 80911601  (.9.............
 0a10 90911701 90931501 80931401 20910401  ............ ...
 0a20 30910501 80910801 90910901 28173907  0...........(.9.
 0a30 19f00e94 92010ec0 80911201 90911301  ................
 0a40 60911601 70911701 0e94a310 90930d01  `...p...........
 0a50 80930c01 20911201 30911301 80910001  .... ...0.......
 0a60 90910101 28173907 19f00e94 920108c0  ....(.9.........
 0a70 80911601 90911701 90931501 80931401  ................
 0a80 20911801 30911901 80911601 90911701   ...0...........
 0a90 28173907 19f40e94 920108c0 80911601  (.9.............
 0aa0 90911701 90931501 80931401 20911201  ............ ...
 0ab0 30911301 80911001 90911101 28173907  0...........(.9.
 0ac0 49f48091 18019091 19019093 0f018093  I...............
 0ad0 0e010ec0 80911201 90911301 60911601  ............`...
 0ae0 70911701 0e94a310 90930d01 80930c01  p...............
 0af0 20911601 30911701 80911601 90911701   ...0...........
 0b00 28173907 19f00e94 920108c0 80910a01  (.9.............
 0b10 90910b01 90930f01 80930e01 80910a01  ................
 0b20 90910b01 60911801 70911901 0e94a310  ....`...p.......
 0b30 90930d01 80930c01 20910801 30910901  ........ ...0...
 0b40 80910801 90910901 28173907 19f00e94  ........(.9.....
 0b50 920108c0 80911601 90911701 90931501  ................
 0b60 80931401 20911001 30911101 80910201  .... ...0.......
 0b70 90910301 28173907 19f00e94 920108c0  ....(.9.........
 0b80 80910a01 90910b01 90930f01 80930e01  ................
 0b90 20911801 30911901 80911801 90911901   ...0...........
 0ba0 28173907 19f00e94 920108c0 80910a01  (.9.............
 0bb0 90910b01 90930f01 80930e01 20911801  ............ ...
 0bc0 30911901 80910a01 90910b01 28173907  0...........(.9.
 0bd0 79f42091 14013091 15018091 06019091  y. ...0.........
 0be0 0701820f 931f9093 0f018093 0e0108c0  ................
 0bf0 80911601 90911701 90931501 80931401  ................
 0c00 20910401 30910501 80910401 90910501   ...0...........
 0c10 28173907 19f00e94 920108c0 80911601  (.9.............
 0c20 90911701 90931501 80931401 80910b00  ................
 0c30 90910c00 90930d01 80930c01 20911601  ............ ...
 0c40 30911701 80911601 90911701 28173907  0...........(.9.
 0c50 49f08091 0a019091 0b019093 15018093  I...............
 0c60 140108c0 80910a01 90910b01 90930f01  ................
 0c70 80930e01 20911201 30911301 80910401  .... ...0.......
 0c80 90910501 28173907 19f40e94 920108c0  ....(.9.........
 0c90 80911601 90911701 90931501 80931401  ................
 0ca0 20911801 30911901 80911801 90911901   ...0...........
 0cb0 28173907 19f00e94 920108c0 80910a01  (.9.............
 0cc0 90910b01 90930f01 80930e01 20911801  ............ ...
 0cd0 30911901 80910a01 90910b01 28173907  0...........(.9.
 0ce0 79f42091 14013091 15018091 06019091  y. ...0.........
 0cf0 0701820f 931f9093 0f018093 0e0108c0  ................
 0d00 80911601 90911701 90931501 80931401  ................
 0d10 20910401 30910501 80910401 90910501   ...0...........
 0d20 28173907 19f00e94 920108c0 80911601  (.9.............
 0d30 90911701 90931501 80931401 80910b00  ................
 0d40 90910c00 90930d01 80930c01 20911601  ............ ...
 0d50 30911701 80911601 90911701 28173907  0...........(.9.
 0d60 49f08091 0a019091 0b019093 15018093  I...............
 0d70 140108c0 80910a01 90910b01 90930f01  ................
 0d80 80930e01 20911201 30911301 80910401  .... ...0.......
 0d90 90910501 28173907 19f40e94 920108c0  ....(.9.........
 0da0 80911601 90911701 90931501 80931401  ................
 0db0 1092c200 1092c100 20911201 30911301  ........ ...0...
 0dc0 80910001 90910101 28173907 19f40e94  ........(.9.....
 0dd0 920108c0 80911601 90911701 90931501  ................
 0de0 80931401 20910401 30910501 80910801  .... ...0.......
 0df0 90910901 28173907 19f00e94 920108c0  ....(.9.........
 0e00 80911601 90911701 90931501 80931401  ................
 0e10 20911201 30911301 80911201 90911301   ...0...........
 0e20 28173907 49f08091 18019091 19019093  (.9.I...........
 0e30 0d018093 0c0108c0 80911601 90911701  ................
 0e40 90931501 80931401 20910a01 30910b01  ........ ...0...
 0e50 80910a01 90910b01 28173907 19f00e94  ........(.9.....
 0e60 92010ec0 80911201 90911301 60911601  ............`...
 0e70 70911701 0e94a310 90930d01 80930c01  p...............
 0e80 80910900 90910a00 90931501 80931401  ................
 0e90 20911001 30911101 80911001 90911101   ...0...........
 0ea0 28173907 19f00e94 920108c0 80910a01  (.9.............
 0eb0 90910b01 90930f01 80930e01 20911601  ............ ...
 0ec0 30911701 80911801 90911901 28173907  0...........(.9.
 0ed0 49f48091 16019091 17019093 15018093  I...............
 0ee0 140108c0 80910a01 90910b01 90930f01  ................
 0ef0 80930e01 20911201 30911301 80911001  .... ...0.......
 0f00 90911101 28173907 19f40e94 920108c0  ....(.9.........
 0f10 80910a01 90910b01 90930f01 80930e01  ................
 0f20 20911601 30911701 80910a01 90910b01   ...0...........
 0f30 28173907 49f48091 06019091 07019093  (.9.I...........
 0f40 0f018093 0e0108c0 80911601 90911701  ................
 0f50 90931501 80931401 20911401 30911501  ........ ...0...
 0f60 80910e01 90910f01 820f931f 90930d01  ................
 0f70 80930c01 20911801 30911901 80911801  .... ...0.......
 0f80 90911901 28173907 49f08091 0c019091  ....(.9.I.......
 0f90 0d019093 0f018093 0e010ec0 80911201  ................
 0fa0 90911301 60911601 70911701 0e94a310  ....`...p.......
 0fb0 90930d01 80930c01 20910801 30910901  ........ ...0...
 0fc0 80911001 90911101 28173907 19f40e94  ........(.9.....
 0fd0 920108c0 80910a01 90910b01 90930f01  ................
 0fe0 80930e01 20911201 30911301 80910001  .... ...0.......
 0ff0 90910101 28173907 49f08091 00019091  ....(.9.I.......
 1000 01019093 13018093 120108c0 80911201  ................
 1010 90911301 90930101 80930001 20911201  ............ ...
 1020 30911301 80911201 90911301 28173907  0...........(.9.
 1030 49f08091 18019091 19019093 0d018093  I...............
 1040 0c0108c0 80911601 90911701 90931501  ................
 1050 80931401 20910a01 30910b01 80910a01  .... ...0.......
 1060 90910b01 28173907 19f00e94 92010ec0  ....(.9.........
 1070 80911201 90911301 60911601 70911701  ........`...p...
 1080 0e94a310 90930d01 80930c01 80910900  ................
 1090 90910a00 90931501 80931401 20911001  ............ ...
 10a0 30911101 80911001 90911101 28173907  0...........(.9.
 10b0 19f00e94 920108c0 80910a01 90910b01  ................
 10c0 90930f01 80930e01 20911601 30911701  ........ ...0...
 10d0 80911801 90911901 28173907 49f48091  ........(.9.I...
 10e0 16019091 17019093 15018093 140108c0  ................
 10f0 80910a01 90910b01 90930f01 80930e01  ................
 1100 20911001 30911101 80910201 90910301   ...0...........
 1110 28173907 19f40e94 920108c0 80910a01  (.9.............
 1120 90910b01 90930f01 80930e01 20911801  ............ ...
 1130 30911901 80911601 90911701 28173907  0...........(.9.
 1140 19f40e94 920108c0 80911601 90911701  ................
 1150 90931501 80931401 20911201 30911301  ........ ...0...
 1160 80911001 90911101 28173907 49f48091  ........(.9.I...
 1170 18019091 19019093 0f018093 0e010ec0  ................
 1180 80911201 90911301 60911601 70911701  ........`...p...
 1190 0e94a310 90930d01 80930c01 20911601  ............ ...
 11a0 30911701 80911601 90911701 28173907  0...........(.9.
 11b0 19f00e94 920108c0 80910a01 90910b01  ................
 11c0 90930f01 80930e01 80910a01 90910b01  ................
 11d0 60911801 70911901 0e94a310 90930d01  `...p...........
 11e0 80930c01 20910801 30910901 80910801  .... ...0.......
 11f0 90910901 28173907 19f00e94 920108c0  ....(.9.........
 1200 80911601 90911701 90931501 80931401  ................
 1210 20911201 30911301 80911001 90911101   ...0...........
 1220 28173907 19f40e94 920108c0 80910a01  (.9.............
 1230 90910b01 90930f01 80930e01 20911601  ............ ...
 1240 30911701 80910a01 90910b01 28173907  0...........(.9.
 1250 49f48091 06019091 07019093 0f018093  I...............
 1260 0e0108c0 80911601 90911701 90931501  ................
 1270 80931401 20911401 30911501 80910e01  .... ...0.......
 1280 90910f01 820f931f 90930d01 80930c01  ................
 1290 20911801 30911901 80911801 90911901   ...0...........
 12a0 28173907 49f08091 0c019091 0d019093  (.9.I...........
 12b0 0f018093 0e010ec0 80911201 90911301  ................
 12c0 60911601 70911701 0e94a310 90930d01  `...p...........
 12d0 80930c01 20910801 30910901 80911001  .... ...0.......
 12e0 90911101 28173907 19f40e94 920108c0  ....(.9.........
 12f0 80910a01 90910b01 90930f01 80930e01  ................
 1300 20910401 30910501 80910801 90910901   ...0...........
 1310 28173907 19f40e94 92010ec0 80911201  (.9.............
 1320 90911301 60911601 70911701 0e94a310  ....`...p.......
 1330 90930d01 80930c01 20911201 30911301  ........ ...0...
 1340 80911001 90911101 28173907 19f40e94  ........(.9.....
 1350 920108c0 80910a01 90910b01 90930f01  ................
 1360 80930e01 20911601 30911701 80910a01  .... ...0.......
 1370 90910b01 28173907 49f48091 06019091  ....(.9.I.......
 1380 07019093 0f018093 0e0108c0 80911601  ................
 1390 90911701 90931501 80931401 20911401  ............ ...
 13a0 30911501 80910e01 90910f01 820f931f  0...............
 13b0 90930d01 80930c01 20911801 30911901  ........ ...0...
 13c0 80911801 90911901 28173907 49f08091  ........(.9.I...
 13d0 0c019091 0d019093 0f018093 0e010ec0  ................
 13e0 80911201 90911301 60911601 70911701  ........`...p...
 13f0 0e94a310 90930d01 80930c01 20910801  ............ ...
 1400 30910901 80911001 90911101 28173907  0...........(.9.
 1410 19f40e94 920108c0 80910a01 90910b01  ................
 1420 90930f01 80930e01 20911201 30911301  ........ ...0...
 1430 80911201 90911301 28173907 49f08091  ........(.9.I...
 1440 18019091 19019093 0d018093 0c0108c0  ................
 1450 80911601 90911701 90931501 80931401  ................
 1460 20910a01 30910b01 80910a01 90910b01   ...0...........
 1470 28173907 19f00e94 92010ec0 80911201  (.9.............
 1480 90911301 60911601 70911701 0e94a310  ....`...p.......
 1490 90930d01 80930c01 80910900 90910a00  ................
 14a0 90931501 80931401 20911001 30911101  ........ ...0...
 14b0 80911001 90911101 28173907 19f00e94  ........(.9.....
 14c0 920108c0 80910a01 90910b01 90930f01  ................
 14d0 80930e01 20911601 30911701 80911801  .... ...0.......
 14e0 90911901 28173907 49f48091 16019091  ....(.9.I.......
 14f0 17019093 15018093 140108c0 80910a01  ................
 1500 90910b01 90930f01 80930e01 20911201  ............ ...
 1510 30911301 80910001 90910101 28173907  0...........(.9.
 1520 19f40e94 920108c0 80911601 90911701  ................
 1530 90931501 80931401 20910401 30910501  ........ ...0...
 1540 80910801 90910901 28173907 49f08091  ........(.9.I...
 1550 08019091 09019093 05018093 040108c0  ................
 1560 80911001 90911101 90930101 80930001  ................
 1570 20911801 30911901 80911601 90911701   ...0...........
 1580 28173907 19f40e94 920108c0 80911601  (.9.............
 1590 90911701 90931501 80931401 20911201  ............ ...
 15a0 30911301 80911001 90911101 28173907  0...........(.9.
 15b0 49f48091 18019091 19019093 0f018093  I...............
 15c0 0e010ec0 80911201 90911301 60911601  ............`...
 15d0 70911701 0e94a310 90930d01 80930c01  p...............
 15e0 20911601 30911701 80911601 90911701   ...0...........
 15f0 28173907 19f00e94 920108c0 80910a01  (.9.............
 1600 90910b01 90930f01 80930e01 80910a01  ................
 1610 90910b01 60911801 70911901 0e94a310  ....`...p.......
 1620 90930d01 80930c01 20910801 30910901  ........ ...0...
 1630 80910801 90910901 28173907 19f00e94  ........(.9.....
 1640 920108c0 80911601 90911701 90931501  ................
 1650 80931401 20911001 30911101 80910201  .... ...0.......
 1660 90910301 28173907 19f40e94 920108c0  ....(.9.........
 1670 80911601 90911701 90931501 80931401  ................
 1680 20911801 30911901 80911801 90911901   ...0...........
 1690 28173907 19f00e94 920108c0 80910a01  (.9.............
 16a0 90910b01 90930f01 80930e01 20911801  ............ ...
 16b0 30911901 80910a01 90910b01 28173907  0...........(.9.
 16c0 79f42091 14013091 15018091 06019091  y. ...0.........
 16d0 0701820f 931f9093 0f018093 0e0108c0  ................
 16e0 80911601 90911701 90931501 80931401  ................
 16f0 20910401 30910501 80910401 90910501   ...0...........
 1700 28173907 19f00e94 920108c0 80911601  (.9.............
 1710 90911701 90931501 80931401 80910b00  ................
 1720 90910c00 90930d01 80930c01 20911601  ............ ...
 1730 30911701 80911601 90911701 28173907  0...........(.9.
 1740 49f08091 0a019091 0b019093 15018093  I...............
 1750 140108c0 80910a01 90910b01 90930f01  ................
 1760 80930e01 20911201 30911301 80910401  .... ...0.......
 1770 90910501 28173907 19f40e94 920108c0  ....(.9.........
 1780 80911601 90911701 90931501 80931401  ................
 1790 20911201 30911301 80911201 90911301   ...0...........
 17a0 28173907 49f08091 18019091 19019093  (.9.I...........
 17b0 0d018093 0c0108c0 80911601 90911701  ................
 17c0 90931501 80931401 20910a01 30910b01  ........ ...0...
 17d0 80910a01 90910b01 28173907 19f00e94  ........(.9.....
 17e0 92010ec0 80911201 90911301 60911601  ............`...
 17f0 70911701 0e94a310 90930d01 80930c01  p...............
 1800 80910900 90910a00 90931501 80931401  ................
 1810 20911001 30911101 80911001 90911101   ...0...........
 1820 28173907 19f00e94 920108c0 80910a01  (.9.............
 1830 90910b01 90930f01 80930e01 20911601  ............ ...
 1840 30911701 80911801 90911901 28173907  0...........(.9.
 1850 49f48091 16019091 17019093 15018093  I...............
 1860 140108c0 80910a01 90910b01 90930f01  ................
 1870 80930e01 20911801 30911901 80911801  .... ...0.......
 1880 90911901 28173907 19f00e94 920108c0  ....(.9.........
 1890 80910a01 90910b01 90930f01 80930e01  ................
 18a0 20911801 30911901 80910a01 90910b01   ...0...........
 18b0 28173907 79f42091 14013091 15018091  (.9.y. ...0.....
 18c0 06019091 0701820f 931f9093 0f018093  ................
 18d0 0e0108c0 80911601 90911701 90931501  ................
 18e0 80931401 20910401 30910501 80910401  .... ...0.......
 18f0 90910501 28173907 19f00e94 920108c0  ....(.9.........
 1900 80911601 90911701 90931501 80931401  ................
 1910 80910b00 90910c00 90930d01 80930c01  ................
 1920 20911601 30911701 80911601 90911701   ...0...........
 1930 28173907 49f08091 0a019091 0b019093  (.9.I...........
 1940 15018093 140108c0 80910a01 90910b01  ................
 1950 90930f01 80930e01 20911201 30911301  ........ ...0...
 1960 80910401 90910501 28173907 19f40e94  ........(.9.....
 1970 920108c0 80911601 90911701 90931501  ................
 1980 80931401 20911001 30911101 80910201  .... ...0.......
 1990 90910301 28173907 19f40e94 92010ec0  ....(.9.........
 19a0 80911201 90911301 60911601 70911701  ........`...p...
 19b0 0e94a310 90930d01 80930c01 20911201  ............ ...
 19c0 30911301 80911001 90911101 28173907  0...........(.9.
 19d0 19f40e94 920108c0 80910a01 90910b01  ................
 19e0 90930f01 80930e01 20911601 30911701  ........ ...0...
 19f0 80910a01 90910b01 28173907 49f48091  ........(.9.I...
 1a00 06019091 07019093 0f018093 0e0108c0  ................
 1a10 80911601 90911701 90931501 80931401  ................
 1a20 20911401 30911501 80910e01 90910f01   ...0...........
 1a30 820f931f 90930d01 80930c01 20911801  ............ ...
 1a40 30911901 80911801 90911901 28173907  0...........(.9.
 1a50 49f08091 0c019091 0d019093 0f018093  I...............
 1a60 0e010ec0 80911201 90911301 60911601  ............`...
 1a70 70911701 0e94a310 90930d01 80930c01  p...............
 1a80 20910801 30910901 80911001 90911101   ...0...........
 1a90 28173907 19f40e94 920108c0 80910a01  (.9.............
 1aa0 90910b01 90930f01 80930e01 20910401  ............ ...
 1ab0 30910501 80910801 90910901 28173907  0...........(.9.
 1ac0 19f00e94 920108c0 80910a01 90910b01  ................
 1ad0 90930f01 80930e01 20911001 30911101  ........ ...0...
 1ae0 80910201 90910301 28173907 49f08091  ........(.9.I...
 1af0 02019091 03019093 11018093 100108c0  ................
 1b00 80911601 90911701 90931501 80931401  ................
 1b10 20911201 30911301 80911201 90911301   ...0...........
 1b20 28173907 49f08091 18019091 19019093  (.9.I...........
 1b30 0d018093 0c0108c0 80911601 90911701  ................
 1b40 90931501 80931401 20910a01 30910b01  ........ ...0...
 1b50 80910a01 90910b01 28173907 19f00e94  ........(.9.....
 1b60 92010ec0 80911201 90911301 60911601  ............`...
 1b70 70911701 0e94a310 90930d01 80930c01  p...............
 1b80 80910900 90910a00 90931501 80931401  ................
 1b90 20911001 30911101 80911001 90911101   ...0...........
 1ba0 28173907 19f00e94 920108c0 80910a01  (.9.............
 1bb0 90910b01 90930f01 80930e01 20911601  ............ ...
 1bc0 30911701 80911801 90911901 28173907  0...........(.9.
 1bd0 49f48091 16019091 17019093 15018093  I...............
 1be0 140108c0 80910a01 90910b01 90930f01  ................
 1bf0 80930e01 20911801 30911901 80911601  .... ...0.......
 1c00 90911701 28173907 19f40e94 920108c0  ....(.9.........
 1c10 80911601 90911701 90931501 80931401  ................
 1c20 20911201 30911301 80911001 90911101   ...0...........
 1c30 28173907 49f48091 18019091 19019093  (.9.I...........
 1c40 0f018093 0e010ec0 80911201 90911301  ................
 1c50 60911601 70911701 0e94a310 90930d01  `...p...........
 1c60 80930c01 20911601 30911701 80911601  .... ...0.......
 1c70 90911701 28173907 19f00e94 920108c0  ....(.9.........
 1c80 80910a01 90910b01 90930f01 80930e01  ................
 1c90 80910a01 90910b01 60911801 70911901  ........`...p...
 1ca0 0e94a310 90930d01 80930c01 20910801  ............ ...
 1cb0 30910901 80910801 90910901 28173907  0...........(.9.
 1cc0 19f00e94 920108c0 80911601 90911701  ................
 1cd0 90931501 80931401 20911201 30911301  ........ ...0...
 1ce0 80910001 90910101 28173907 19f00e94  ........(.9.....
 1cf0 920108c0 80911601 90911701 90931501  ................
 1d00 80931401 8de60e94 ac0183e7 0e94ac01  ................
 1d10 8ee391e0 0e943e03 97ec892e 9be6992e  ......>.........
 1d20 9fe9a92e 96e0b92e c12cd12c 7601c394  .........,.,v...
 1d30 20911801 30911901 80911601 90911701   ...0...........
 1d40 28173907 19f40e94 920108c0 80911601  (.9.............
 1d50 90911701 90931501 80931401 20911201  ............ ...
 1d60 30911301 80911001 90911101 28173907  0...........(.9.
 1d70 49f48091 18019091 19019093 0f018093  I...............
 1d80 0e010ec0 80911201 90911301 60911601  ............`...
 1d90 70911701 0e94a310 90930d01 80930c01  p...............
 1da0 20911601 30911701 80911601 90911701   ...0...........
 1db0 28173907 19f00e94 920108c0 80910a01  (.9.............
 1dc0 90910b01 90930f01 80930e01 80910a01  ................
 1dd0 90910b01 60911801 70911901 0e94a310  ....`...p.......
 1de0 90930d01 80930c01 20910801 30910901  ........ ...0...
 1df0 80910801 90910901 28173907 19f00e94  ........(.9.....
 1e00 920108c0 80911601 90911701 90931501  ................
 1e10 80931401 20911201 30911301 80911001  .... ...0.......
 1e20 90911101 28173907 19f40e94 920108c0  ....(.9.........
 1e30 80910a01 90910b01 90930f01 80930e01  ................
 1e40 20911601 30911701 80910a01 90910b01   ...0...........
 1e50 28173907 49f48091 06019091 07019093  (.9.I...........
 1e60 0f018093 0e0108c0 80911601 90911701  ................
 1e70 90931501 80931401 20911401 30911501  ........ ...0...
 1e80 80910e01 90910f01 820f931f 90930d01  ................
 1e90 80930c01 20911801 30911901 80911801  .... ...0.......
 1ea0 90911901 28173907 49f08091 0c019091  ....(.9.I.......
 1eb0 0d019093 0f018093 0e010ec0 80911201  ................
 1ec0 90911301 60911601 70911701 0e94a310  ....`...p.......
 1ed0 90930d01 80930c01 20910801 30910901  ........ ...0...
 1ee0 80911001 90911101 28173907 19f40e94  ........(.9.....
 1ef0 920108c0 80910a01 90910b01 90930f01  ................
 1f00 80930e01 89829a82 ab82bc82 80910601  ................
 1f10 90910701 9927fc01 e656ff4f 2491fc01  .....'...V.O$...
 1f20 ea57ff4f 3491fc01 ee58ff4f e491ee23  .W.O4....X.O...#
 1f30 09f4c2c0 222339f1 233091f0 38f42130  ...."#9.#0..8.!0
 1f40 a9f02230 01f584b5 8f7d12c0 273091f0  .."0.....}..'0..
 1f50 2830a1f0 2430b9f4 80918000 8f7d03c0  (0..$0.......}..
 1f60 80918000 8f778093 80000dc0 84b58f77  .....w.........w
 1f70 84bd09c0 8091b000 8f7703c0 8091b000  .........w......
 1f80 8f7d8093 b000f0e0 ee0fff1f e859ff4f  .}...........Y.O
 1f90 a591b491 ec91e323 09f48ec0 c982da82  .......#........
 1fa0 eb82fc82 89819a81 ab81bc81 8730924b  .............0.K
 1fb0 a140b105 60f48981 9a81ab81 bc810196  .@..`...........
 1fc0 a11db11d 89839a83 ab83bc83 ebcf2091  .............. .
 1fd0 12013091 13018091 12019091 13012817  ..0...........(.
 1fe0 390749f0 80911801 90911901 90930d01  9.I.............
 1ff0 80930c01 08c08091 16019091 17019093  ................
 2000 15018093 14012091 0a013091 0b018091  ...... ...0.....
 2010 0a019091 0b012817 390719f0 0e949201  ......(.9.......
 2020 0ec08091 12019091 13016091 16017091  ..........`...p.
 2030 17010e94 a3109093 0d018093 0c018091  ................
 2040 09009091 0a009093 15018093 14012091  .............. .
 2050 10013091 11018091 10019091 11012817  ..0...........(.
 2060 390719f0 0e949201 08c08091 0a019091  9...............
 2070 0b019093 0f018093 0e012091 16013091  .......... ...0.
 2080 17018091 18019091 19012817 390749f4  ..........(.9.I.
 2090 80911601 90911701 90931501 80931401  ................
 20a0 08c08091 0a019091 0b019093 0f018093  ................
 20b0 0e010e94 88013cce c982da82 eb82fc82  ......<.........
 20c0 89819a81 ab81bc81 8e309446 a340b105  .........0.F.@..
 20d0 08f064cf 89819a81 ab81bc81 0196a11d  ..d.............
 20e0 b11d8983 9a83ab83 bc83eacf e7e5f1e0  ................
 20f0 13821282 88ee93e0 a0e0b0e0 84839583  ................
 2100 a683b783 8ee191e0 91838083 85ec90e0  ................
 2110 95878487 84ec90e0 97878687 80ec90e0  ................
 2120 918b808b 81ec90e0 938b828b 82ec90e0  ................
 2130 958b848b 86ec90e0 978b868b 118e128e  ................
 2140 138e148e 089597fb 072e16f4 009407d0  ................
 2150 77fd09d0 0e94b710 07fc05d0 3ef49095  w...........>...
 2160 81959f4f 08957095 61957f4f 0895aa1b  ...O..p.a..O....
 2170 bb1b51e1 07c0aa1f bb1fa617 b70710f0  ..Q.............
 2180 a61bb70b 881f991f 5a95a9f7 80959095  ........Z.......
 2190 bc01cd01 0895ee0f ff1f0590 f491e02d  ...............-
 21a0 099481e0 90e0f894 0c94d610 f894ffcf  ................
Contents of section .stab:
 0000 01000000 00008201 f2110000 0e000000  ................
 0010 64000000 04010000 21000000 64000000  d.......!...d...
 0020 04010000 39000000 3c000000 00000000  ....9...<.......
 0030 48000000 80000000 00000000 82000000  H...............
 0040 80002600 00000000 a6000000 80002500  ..&...........%.
 0050 00000000 f8000000 80002600 00000000  ..........&.....
 0060 1c010000 8000d800 00000000 44010000  ............D...
 0070 80000000 00000000 67010000 80007500  ........g.....u.
 0080 00000000 ca010000 80007500 00000000  ..........u.....
 0090 fb010000 80003200 00000000 24020000  ......2.....$...
 00a0 80003100 00000000 9f020000 80002600  ..1...........&.
 00b0 00000000 c5020000 80007500 00000000  ..........u.....
 00c0 18030000 80007500 00000000 49030000  ......u.....I...
 00d0 80003200 00000000 72030000 80003100  ..2.....r.....1.
 00e0 00000000 d2030000 80007e00 00000000  ..........~.....
 00f0 fc030000 80003b00 00000000 1d040000  ......;.........
 0100 80004000 00000000 3e040000 80000000  ..@.....>.......
 0110 00000000 54040000 80005e00 00000000  ....T.....^.....
 0120 95040000 80005d00 00000000 6d060000  ......].....m...
 0130 80005e00 00000000 ae060000 80005e00  ..^...........^.
 0140 00000000 ef060000 80007f00 00000000  ................
 0150 03070000 80008f00 00000000 0e070000  ................
 0160 80000000 00000000 28070000 80008000  ........(.......
 0170 00000000 40070000 80008200 00000000  ....@...........
 0180 58070000 80000000 00000000 7b070000  X...........{...
 0190 24002200 04010000 97070000 40002200  $.".........@.".
 01a0 0c000000 b3070000 40002200 0e000000  ........@.".....
 01b0 00000000 2e000000 04010000 bf070000  ................
 01c0 84000000 04010000 00000000 44002300  ............D.#.
 01d0 00000000 00000000 44002400 16000000  ........D.$.....
 01e0 00000000 44002500 1a000000 00000000  ....D.%.........
 01f0 44002600 20000000 00000000 44002a00  D.&. .......D.*.
 0200 40000000 00000000 24000000 54000000  @.......$...T...
 0210 00000000 4e000000 58010000 18080000  ....N...X.......
 0220 24005a00 58010000 39080000 40005a00  $.Z.X...9...@.Z.
 0230 18000000 00000000 2e000000 58010000  ............X...
 0240 55080000 84000000 58010000 00000000  U.......X.......
 0250 44005a00 00000000 00000000 24000000  D.Z.........$...
 0260 02000000 00000000 4e000000 5a010000  ........N...Z...
 0270 ac080000 24003f00 5a010000 d2080000  ....$.?.Z.......
 0280 40003f00 18000000 00000000 2e000000  @.?.............
 0290 5a010000 00000000 44003f00 00000000  Z.......D.?.....
 02a0 00000000 44003f00 00000000 00000000  ....D.?.........
 02b0 24000000 06000000 00000000 4e000000  $...........N...
 02c0 60010000 df080000 2400c000 60010000  `.......$...`...
 02d0 0f090000 4000c000 18000000 00000000  ....@...........
 02e0 2e000000 60010000 2c090000 84000000  ....`...,.......
 02f0 60010000 00000000 4400c100 00000000  `.......D.......
 0300 00000000 4400c600 00000000 00000000  ....D...........
 0310 4400c700 04000000 00000000 4400c900  D...........D...
 0320 0e000000 00000000 4400ca00 1a000000  ........D.......
 0330 00000000 4400cb00 1c000000 8e090000  ....D...........
 0340 4000c200 15000000 9b090000 4000c300  @...........@...
 0350 14000000 00000000 c0000000 00000000  ................
 0360 00000000 e0000000 1e000000 00000000  ................
 0370 24000000 1e000000 00000000 4e000000  $...........N...
 0380 7e010000 a8090000 2400b400 7e010000  ~.......$...~...
 0390 ca090000 4000b400 1e000000 00000000  ....@...........
 03a0 2e000000 7e010000 00000000 4400b500  ....~.......D...
 03b0 00000000 00000000 4400b700 02000000  ........D.......
 03c0 00000000 4400ba00 0a000000 00000000  ....D...........
 03d0 4400bb00 16000000 00000000 4400bc00  D...........D...
 03e0 1e000000 00000000 4400b800 22000000  ........D..."...
 03f0 00000000 4400be00 26000000 d7090000  ....D...&.......
 0400 4000ba00 18000000 00000000 c0000000  @...............
 0410 0a000000 00000000 e0000000 22000000  ............"...
 0420 00000000 24000000 28000000 00000000  ....$...(.......
 0430 4e000000 a6010000 e1090000 2400ab00  N...........$...
 0440 a6010000 ca090000 4000ab00 1e000000  ........@.......
 0450 00000000 2e000000 a6010000 00000000  ................
 0460 4400ac00 00000000 00000000 4400ad00  D...........D...
 0470 02000000 00000000 4400b000 0a000000  ........D.......
 0480 00000000 4400ae00 16000000 00000000  ....D...........
 0490 4400b200 1a000000 00000000 24000000  D...........$...
 04a0 1c000000 00000000 4e000000 c2010000  ........N.......
 04b0 030a0000 2400a600 c2010000 ca090000  ....$...........
 04c0 4000a600 1e000000 00000000 2e000000  @...............
 04d0 c2010000 00000000 4400a700 00000000  ........D.......
 04e0 00000000 4400a800 02000000 00000000  ....D...........
 04f0 4400a900 12000000 00000000 24000000  D...........$...
 0500 18000000 00000000 4e000000 da010000  ........N.......
 0510 2a0a0000 24004b00 da010000 00000000  *...$.K.........
 0520 2e000000 da010000 490a0000 84000000  ........I.......
 0530 da010000 00000000 44004b00 00000000  ........D.K.....
 0540 00000000 44004c00 00000000 00000000  ....D.L.........
 0550 44004d00 10000000 00000000 24000000  D.M.........$...
 0560 14000000 00000000 4e000000 ee010000  ........N.......
 0570 ac0a0000 24005900 ee010000 ca090000  ....$.Y.........
 0580 40005900 1e000000 00000000 2e000000  @.Y.............
 0590 ee010000 2c090000 84000000 ee010000  ....,...........
 05a0 00000000 44005a00 00000000 00000000  ....D.Z.........
 05b0 44005d00 02000000 00000000 44005e00  D.].........D.^.
 05c0 10000000 00000000 44006000 1c000000  ........D.`.....
 05d0 00000000 44006800 22000000 00000000  ....D.h.".......
 05e0 44006d00 2e000000 00000000 44006f00  D.m.........D.o.
 05f0 36000000 d7090000 40005d00 12000000  6.......@.].....
 0600 00000000 c0000000 00000000 00000000  ................
 0610 e0000000 44000000 00000000 24000000  ....D.......$...
 0620 44000000 00000000 4e000000 32020000  D.......N...2...
 0630 dd0a0000 2400e100 32020000 ca090000  ....$...2.......
 0640 4000e100 1c000000 000b0000 4000e100  @...........@...
 0650 16000000 00000000 2e000000 32020000  ............2...
 0660 00000000 4400e200 00000000 00000000  ....D...........
 0670 4400e300 0e000000 00000000 4400e800  D...........D...
 0680 12000000 00000000 4400fb00 26000000  ........D...&...
 0690 00000000 4400ff00 34000000 00000000  ....D...4.......
 06a0 44000001 3a000000 00000000 44000501  D...:.......D...
 06b0 40000000 00000000 44000601 4a000000  @.......D...J...
 06c0 00000000 44000c01 52000000 00000000  ....D...R.......
 06d0 44001101 60000000 0a0b0000 84000000  D...`...........
 06e0 94020000 00000000 44003200 62000000  ........D.2.b...
 06f0 2c090000 84000000 96020000 00000000  ,...............
 0700 44001201 64000000 00000000 44001301  D...d.......D...
 0710 66000000 00000000 4400f100 70000000  f.......D...p...
 0720 0a0b0000 84000000 a4020000 00000000  ................
 0730 44003200 72000000 2c090000 84000000  D.2.r...,.......
 0740 a6020000 00000000 4400f200 74000000  ........D...t...
 0750 00000000 4400f400 7a000000 0a0b0000  ....D...z.......
 0760 84000000 b8020000 00000000 44004600  ............D.F.
 0770 86000000 00000000 44004700 88000000  ........D.G.....
 0780 2c090000 84000000 ba020000 00000000  ,...............
 0790 44001701 88000000 2d0b0000 4000f100  D.......-...@...
 07a0 19000000 00000000 c0000000 70000000  ............p...
 07b0 00000000 e0000000 88000000 3f0b0000  ............?...
 07c0 4000fb00 0e000000 00000000 c0000000  @...............
 07d0 26000000 2d0b0000 40001101 19000000  &...-...@.......
 07e0 00000000 c0000000 60000000 00000000  ........`.......
 07f0 e0000000 70000000 00000000 e0000000  ....p...........
 0800 70000000 00000000 24000000 9a000000  p.......$.......
 0810 00000000 4e000000 cc020000 490b0000  ....N.......I...
 0820 2400cd00 cc020000 ca090000 4000cd00  $...........@...
 0830 1c000000 00000000 2e000000 cc020000  ................
 0840 00000000 4400ce00 00000000 00000000  ....D...........
 0850 4400d200 06000000 00000000 4400d500  D...........D...
 0860 0c000000 00000000 4400d600 20000000  ........D... ...
 0870 00000000 4400da00 2c000000 00000000  ....D...,.......
 0880 4400db00 36000000 00000000 4400df00  D...6.......D...
 0890 3e000000 00000000 24000000 44000000  >.......$...D...
 08a0 00000000 4e000000 10030000 6d0b0000  ....N.......m...
 08b0 24004000 10030000 00000000 2e000000  $.@.............
 08c0 10030000 00000000 44004100 00000000  ........D.A.....
 08d0 00000000 44004300 00000000 00000000  ....D.C.........
 08e0 24000000 14000000 00000000 4e000000  $...........N...
 08f0 24030000 890b0000 24002000 24030000  $.......$. .$...
 0900 00000000 2e000000 24030000 c40b0000  ........$.......
 0910 84000000 24030000 00000000 44002000  ....$.......D. .
 0920 00000000 00000000 44002000 00000000  ........D. .....
 0930 00000000 24000000 34000000 00000000  ....$...4.......
 0940 4e000000 58030000 ee0b0000 24002000  N...X.......$. .
 0950 58030000 010c0000 40002000 11000000  X.......@. .....
 0960 00000000 2e000000 58030000 00000000  ........X.......
 0970 44002000 00000000 00000000 44002000  D. .........D. .
 0980 0e000000 0b0c0000 80002000 01000000  .......... .....
 0990 00000000 c0000000 f2000000 00000000  ................
 09a0 e0000000 30010000 00000000 24000000  ....0.......$...
 09b0 24030000 00000000 4e000000 7c060000  $.......N...|...
 09c0 150c0000 24008a00 7c060000 3e0c0000  ....$...|...>...
 09d0 40008a00 18000000 00000000 2e000000  @...............
 09e0 7c060000 bf070000 84000000 7c060000  |...........|...
 09f0 00000000 44008a00 00000000 55080000  ....D.......U...
 0a00 84000000 80060000 00000000 44003500  ............D.5.
 0a10 04000000 00000000 44003600 08000000  ........D.6.....
 0a20 00000000 44003500 26000000 00000000  ....D.5.&.......
 0a30 44003600 2a000000 bf070000 84000000  D.6.*...........
 0a40 b6060000 00000000 44008f00 3a000000  ........D...:...
 0a50 00000000 24000000 44000000 00000000  ....$...D.......
 0a60 4e000000 c0060000 480c0000 24001e00  N.......H...$...
 0a70 c0060000 00000000 2e000000 c0060000  ................
 0a80 630c0000 84000000 c0060000 00000000  c...............
 0a90 44001e00 00000000 00000000 44001a00  D...........D...
 0aa0 00000000 00000000 24000000 04000000  ........$.......
 0ab0 00000000 4e000000 c4060000 ba0c0000  ....N...........
 0ac0 24002d00 c4060000 00000000 2e000000  $.-.............
 0ad0 c4060000 ce0c0000 84000000 c4060000  ................
 0ae0 00000000 44002f00 00000000 00000000  ....D./.........
 0af0 44003200 16000000 00000000 44003300  D.2.........D.3.
 0b00 26000000 00000000 44003600 2a000000  &.......D.6.*...
 0b10 00000000 44003700 2e000000 00000000  ....D.7.........
 0b20 44003500 32000000 00000000 44003800  D.5.2.......D.8.
 0b30 3a000000 00000000 44003900 3e000000  :.......D.9.>...
 0b40 00000000 44003c00 44000000 00000000  ....D.<.D.......
 0b50 44003d00 48000000 00000000 44003e00  D.=.H.......D.>.
 0b60 58000000 00000000 44003f00 7e000000  X.......D.?.~...
 0b70 00000000 24000000 94000000 00000000  ....$...........
 0b80 4e000000 58070000 260d0000 24002100  N...X...&...$.!.
 0b90 08080000 00000000 2e000000 08080000  ................
 0ba0 320d0000 84000000 08080000 00000000  2...............
 0bb0 44002200 00000000 ce0c0000 84000000  D.".............
 0bc0 14080000 00000000 4400f500 0c000000  ........D.......
 0bd0 00000000 4400fb00 0e000000 00000000  ....D...........
 0be0 4400fc00 14000000 00000000 44000901  D...........D...
 0bf0 1a000000 00000000 44000a01 20000000  ........D... ...
 0c00 00000000 44001701 26000000 00000000  ....D...&.......
 0c10 44002201 30000000 00000000 44002501  D.".0.......D.%.
 0c20 34000000 00000000 44002701 3e000000  4.......D.'.>...
 0c30 00000000 44003101 48000000 00000000  ....D.1.H.......
 0c40 44003801 52000000 00000000 44004101  D.8.R.......D.A.
 0c50 5c000000 00000000 44006401 66000000  \.......D.d.f...
 0c60 00000000 44006501 70000000 00000000  ....D.e.p.......
 0c70 44006601 7a000000 00000000 44007d01  D.f.z.......D.}.
 0c80 84000000 00000000 44008601 8e000000  ........D.......
 0c90 2c090000 84000000 9a080000 00000000  ,...............
 0ca0 44007900 92000000 00000000 44008700  D.y.........D...
 0cb0 9e000000 00000000 44008800 a8000000  ........D.......
 0cc0 00000000 44008a00 b4000000 00000000  ....D...........
 0cd0 44009000 b8000000 00000000 44009200  D...........D...
 0ce0 c4000000 00000000 44009300 d2000000  ........D.......
 0cf0 00000000 44009400 e0000000 00000000  ....D...........
 0d00 44009500 ee000000 8a0d0000 84000000  D...............
 0d10 04090000 00000000 44001100 fc000000  ........D.......
 0d20 c40b0000 84000000 0c090000 00000000  ................
 0d30 44002000 04010000 8a0d0000 84000000  D. .............
 0d40 041d0000 00000000 44001b00 fc140000  ........D.......
 0d50 00000000 44001c00 02150000 00000000  ....D...........
 0d60 44001f00 08150000 c40b0000 84000000  D...............
 0d70 181d0000 00000000 44002000 10150000  ........D. .....
 0d80 dc0d0000 84000000 141f0000 00000000  ................
 0d90 4400a700 0c170000 00000000 4400a800  D...........D...
 0da0 16170000 00000000 4400a900 1e170000  ........D.......
 0db0 00000000 4400ab00 26170000 00000000  ....D...&.......
 0dc0 4400af00 2c170000 00000000 44004d00  D...,.......D.M.
 0dd0 30170000 00000000 44006200 3e170000  0.......D.b.>...
 0de0 00000000 44004d00 44170000 00000000  ....D.M.D.......
 0df0 44005300 50170000 00000000 44005000  D.S.P.......D.P.
 0e00 58170000 00000000 44005300 5e170000  X.......D.S.^...
 0e10 00000000 44005e00 64170000 00000000  ....D.^.d.......
 0e20 44006200 68170000 00000000 44006500  D.b.h.......D.e.
 0e30 6c170000 00000000 44006800 74170000  l.......D.h.t...
 0e40 00000000 4400b100 7e170000 c40b0000  ....D...~.......
 0e50 84000000 9c1f0000 00000000 44002000  ............D. .
 0e60 94170000 320d0000 84000000 b2200000  ....2........ ..
 0e70 00000000 44002f00 aa180000 c40b0000  ....D./.........
 0e80 84000000 b8200000 00000000 44002000  ..... ......D. .
 0e90 b0180000 3c0e0000 80002000 01000000  ....<..... .....
 0ea0 00000000 c0000000 10150000 4d0e0000  ............M...
 0eb0 4000a800 13000000 590e0000 4000a900  @.......Y...@...
 0ec0 1e000000 00000000 c0000000 0c170000  ................
 0ed0 660e0000 4000b100 1e000000 00000000  f...@...........
 0ee0 c0000000 7e170000 00000000 e0000000  ....~...........
 0ef0 8c170000 00000000 e0000000 94170000  ................
 0f00 00000000 e0000000 aa180000 770e0000  ............w...
 0f10 80002000 01000000 00000000 c0000000  .. .............
 0f20 b0180000 00000000 e0000000 e4180000  ................
 0f30 00000000 24000000 e4180000 00000000  ....$...........
 0f40 4e000000 ec200000 800e0000 24004d00  N.... ......$.M.
 0f50 ec200000 00000000 2e000000 ec200000  . ........... ..
 0f60 490a0000 84000000 ec200000 00000000  I........ ......
 0f70 44004d00 00000000 55080000 84000000  D.M.....U.......
 0f80 ec200000 00000000 44002e00 00000000  . ......D.......
 0f90 a30e0000 84000000 f4200000 00000000  ......... ......
 0fa0 44003f00 08000000 fb0e0000 84000000  D.?.............
 0fb0 04210000 00000000 44005f00 18000000  .!......D._.....
 0fc0 00000000 24000000 5a000000 00000000  ....$...Z.......
 0fd0 4e000000 46210000 630f0000 24003b00  N...F!..c...$.;.
 0fe0 58070000 00000000 2e000000 58070000  X...........X...
 0ff0 490a0000 84000000 58070000 00000000  I.......X.......
 1000 44003f00 00000000 00000000 44004000  D.?.........D.@.
 1010 22000000 00000000 44004100 2a000000  ".......D.A.*...
 1020 00000000 24000000 4c000000 00000000  ....$...L.......
 1030 4e000000 a4070000 770f0000 24002800  N.......w...$.(.
 1040 a4070000 00000000 2e000000 a4070000  ................
 1050 00000000 44003000 00000000 fb0e0000  ....D.0.........
 1060 84000000 b8070000 00000000 44006700  ............D.g.
 1070 14000000 00000000 44006a00 2a000000  ........D.j.*...
 1080 00000000 44006b00 2c000000 00000000  ....D.k.,.......
 1090 44007100 34000000 00000000 44007200  D.q.4.......D.r.
 10a0 3c000000 00000000 44007300 48000000  <.......D.s.H...
 10b0 00000000 44007700 4e000000 490a0000  ....D.w.N...I...
 10c0 84000000 f4070000 00000000 44003200  ............D.2.
 10d0 50000000 d7090000 40006a00 19000000  P.......@.j.....
 10e0 8b0f0000 40006b00 18000000 00000000  ....@.k.........
 10f0 c0000000 2a000000 00000000 e0000000  ....*...........
 1100 4e000000 00000000 24000000 64000000  N.......$...d...
 1110 00000000 4e000000 08080000 950f0000  ....N...........
 1120 26002000 00018000 ac0f0000 26002000  &. .........&. .
 1130 02018000 c30f0000 26002000 04018000  ........&. .....
 1140 d90f0000 26008e00 68000000 0f100000  ....&...h.......
 1150 26009600 72000000 53100000 2600ad00  &...r...S...&...
 1160 86000000 77100000 2600c400 9a000000  ....w...&.......
 1170 98100000 26002000 06018000 b1100000  ....&. .........
 1180 26002000 08018000 c6100000 26002000  &. .........&. .
 1190 0a018000 dc100000 26002000 0c018000  ........&. .....
 11a0 f1100000 26002000 0e018000 08110000  ....&. .........
 11b0 26002000 10018000 1e110000 26002000  &. .........&. .
 11c0 12018000 34110000 26002000 14018000  ....4...&. .....
 11d0 49110000 26002000 16018000 5f110000  I...&. ....._...
 11e0 26002000 18018000 75110000 26002600  &. .....u...&.&.
 11f0 4e018000 b8110000 26002800 52018000  N.......&.(.R...
 1200 cd110000 26002700 53018000 e3110000  ....&.'.S.......
 1210 28004600 57018000 00000000 64000000  (.F.W.......d...
 1220 08080000                             ....            
Contents of section .stabstr:
 0000 003c6172 74696669 6369616c 3e002f68  .<artificial>./h
 0010 6f6d652f 7363686c 61747465 726d722f  ome/schlattermr/
 0020 002f746d 702f6363 54634c4d 76312e6c  ./tmp/ccTcLMv1.l
 0030 7472616e 73302e6f 00676363 325f636f  trans0.o.gcc2_co
 0040 6d70696c 65642e00 5f5f7674 626c5f70  mpiled..__vtbl_p
 0050 74725f74 7970653a 7428302c 31293d2a  tr_type:t(0,1)=*
 0060 28302c32 293d6628 302c3329 3d722830  (0,2)=f(0,3)=r(0
 0070 2c33293b 2d333237 36383b33 32373637  ,3);-32768;32767
 0080 3b005072 696e743a 3a507269 6e743a54  ;.Print::Print:T
 0090 7428302c 34293d28 302c3529 3d787350  t(0,4)=(0,5)=xsP
 00a0 72696e74 3a005072 696e743a 54742830  rint:.Print:Tt(0
 00b0 2c35293d 73345f76 7074722e 5072696e  ,5)=s4_vptr.Prin
 00c0 743a2830 2c36293d 2a28302c 31292c30  t:(0,6)=*(0,1),0
 00d0 2c31363b 77726974 655f6572 726f723a  ,16;write_error:
 00e0 2f302830 2c33292c 31362c31 363b3b7e  /0(0,3),16,16;;~
 00f0 2528302c 35293b00 5072696e 743a3a50  %(0,5);.Print::P
 0100 72696e74 3a547428 302c3729 3d28302c  rint:Tt(0,7)=(0,
 0110 38293d78 73507269 6e743a00 73697a65  8)=xsPrint:.size
 0120 5f743a74 28302c39 293d2830 2c313029  _t:t(0,9)=(0,10)
 0130 3d722830 2c313029 3b303b30 31373737  =r(0,10);0;01777
 0140 37373b00 63686172 3a742830 2c313129  77;.char:t(0,11)
 0150 3d407338 3b722830 2c313129 3b2d3132  =@s8;r(0,11);-12
 0160 383b3132 373b0053 74726561 6d3a3a4d  8;127;.Stream::M
 0170 756c7469 54617267 65743a54 7428302c  ultiTarget:Tt(0,
 0180 3132293d 73367374 723a2830 2c313329  12)=s6str:(0,13)
 0190 3d2a2830 2c313429 3d6b2830 2c313129  =*(0,14)=k(0,11)
 01a0 2c302c31 363b6c65 6e3a2830 2c39292c  ,0,16;len:(0,9),
 01b0 31362c31 363b696e 6465783a 28302c39  16,16;index:(0,9
 01c0 292c3332 2c31363b 3b005374 7265616d  ),32,16;;.Stream
 01d0 3a3a4d75 6c746954 61726765 743a3a4d  ::MultiTarget::M
 01e0 756c7469 54617267 65743a54 7428302c  ultiTarget:Tt(0,
 01f0 3135293d 28302c31 32290053 74726561  15)=(0,12).Strea
 0200 6d3a3a53 74726561 6d3a5474 28302c31  m::Stream:Tt(0,1
 0210 36293d28 302c3137 293d7873 53747265  6)=(0,17)=xsStre
 0220 616d3a00 53747265 616d3a54 7428302c  am:.Stream:Tt(0,
 0230 3137293d 73313221 312c3032 302c2830  17)=s12!1,020,(0
 0240 2c38293b 5f74696d 656f7574 3a2f3128  ,8);_timeout:/1(
 0250 302c3138 293d4073 33323b72 28302c31  0,18)=@s32;r(0,1
 0260 38293b30 3b303337 37373737 37373737  8);0;03777777777
 0270 373b2c33 322c3332 3b5f7374 6172744d  7;,32,32;_startM
 0280 696c6c69 733a2f31 28302c31 38292c36  illis:/1(0,18),6
 0290 342c3332 3b3b7e25 28302c38 293b0050  4,32;;~%(0,8);.P
 02a0 72696e74 3a3a5072 696e743a 54742830  rint::Print:Tt(0
 02b0 2c313929 3d28302c 3230293d 78735072  ,19)=(0,20)=xsPr
 02c0 696e743a 00537472 65616d3a 3a4d756c  int:.Stream::Mul
 02d0 74695461 72676574 3a547428 302c3231  tiTarget:Tt(0,21
 02e0 293d7336 7374723a 28302c31 33292c30  )=s6str:(0,13),0
 02f0 2c31363b 6c656e3a 28302c39 292c3136  ,16;len:(0,9),16
 0300 2c31363b 696e6465 783a2830 2c39292c  ,16;index:(0,9),
 0310 33322c31 363b3b00 53747265 616d3a3a  32,16;;.Stream::
 0320 4d756c74 69546172 6765743a 3a4d756c  MultiTarget::Mul
 0330 74695461 72676574 3a547428 302c3232  tiTarget:Tt(0,22
 0340 293d2830 2c323129 00537472 65616d3a  )=(0,21).Stream:
 0350 3a537472 65616d3a 54742830 2c323329  :Stream:Tt(0,23)
 0360 3d28302c 3234293d 78735374 7265616d  =(0,24)=xsStream
 0370 3a005374 7265616d 3a547428 302c3234  :.Stream:Tt(0,24
 0380 293d7331 3221312c 3032302c 28302c32  )=s12!1,020,(0,2
 0390 30293b5f 74696d65 6f75743a 2f312830  0);_timeout:/1(0
 03a0 2c313829 2c33322c 33323b5f 73746172  ,18),32,32;_star
 03b0 744d696c 6c69733a 2f312830 2c313829  tMillis:/1(0,18)
 03c0 2c36342c 33323b3b 7e252830 2c323029  ,64,32;;~%(0,20)
 03d0 3b007569 6e74385f 743a7428 302c3235  ;.uint8_t:t(0,25
 03e0 293d2830 2c323629 3d407338 3b722830  )=(0,26)=@s8;r(0
 03f0 2c323629 3b303b32 35353b00 74785f62  ,26);0;255;.tx_b
 0400 75666665 725f696e 6465785f 743a7428  uffer_index_t:t(
 0410 302c3237 293d2830 2c323529 0072785f  0,27)=(0,25).rx_
 0420 62756666 65725f69 6e646578 5f743a74  buffer_index_t:t
 0430 28302c32 38293d28 302c3235 2900626f  (0,28)=(0,25).bo
 0440 6f6c3a74 28302c32 39293d40 73383b2d  ol:t(0,29)=@s8;-
 0450 31363b00 48617264 77617265 53657269  16;.HardwareSeri
 0460 616c3a3a 48617264 77617265 53657269  al::HardwareSeri
 0470 616c3a54 7428302c 3330293d 28302c33  al:Tt(0,30)=(0,3
 0480 31293d78 73486172 64776172 65536572  1)=xsHardwareSer
 0490 69616c3a 00486172 64776172 65536572  ial:.HardwareSer
 04a0 69616c3a 54742830 2c333129 3d733135  ial:Tt(0,31)=s15
 04b0 3721312c 3032302c 28302c32 34293b5f  7!1,020,(0,24);_
 04c0 75627272 683a2f31 28302c33 32293d6b  ubrrh:/1(0,32)=k
 04d0 28302c33 33293d2a 28302c33 34293d42  (0,33)=*(0,34)=B
 04e0 28302c32 35292c39 362c3136 3b5f7562  (0,25),96,16;_ub
 04f0 72726c3a 2f312830 2c333229 2c313132  rrl:/1(0,32),112
 0500 2c31363b 5f756373 72613a2f 3128302c  ,16;_ucsra:/1(0,
 0510 3332292c 3132382c 31363b5f 75637372  32),128,16;_ucsr
 0520 623a2f31 28302c33 32292c31 34342c31  b:/1(0,32),144,1
 0530 363b5f75 63737263 3a2f3128 302c3332  6;_ucsrc:/1(0,32
 0540 292c3136 302c3136 3b5f7564 723a2f31  ),160,16;_udr:/1
 0550 28302c33 32292c31 37362c31 363b5f77  (0,32),176,16;_w
 0560 72697474 656e3a2f 3128302c 3239292c  ritten:/1(0,29),
 0570 3139322c 383b5f72 785f6275 66666572  192,8;_rx_buffer
 0580 5f686561 643a2f31 28302c33 35293d42  _head:/1(0,35)=B
 0590 28302c32 38292c32 30302c38 3b5f7278  (0,28),200,8;_rx
 05a0 5f627566 6665725f 7461696c 3a2f3128  _buffer_tail:/1(
 05b0 302c3335 292c3230 382c383b 5f74785f  0,35),208,8;_tx_
 05c0 62756666 65725f68 6561643a 2f312830  buffer_head:/1(0
 05d0 2c333629 3d422830 2c323729 2c323136  ,36)=B(0,27),216
 05e0 2c383b5f 74785f62 75666665 725f7461  ,8;_tx_buffer_ta
 05f0 696c3a2f 3128302c 3336292c 3232342c  il:/1(0,36),224,
 0600 383b5f72 785f6275 66666572 3a2f3128  8;_rx_buffer:/1(
 0610 302c3337 293d6172 28302c33 38293d72  0,37)=ar(0,38)=r
 0620 28302c33 38293b30 3b303137 37373737  (0,38);0;0177777
 0630 3b3b303b 36333b28 302c3236 292c3233  ;;0;63;(0,26),23
 0640 322c3531 323b5f74 785f6275 66666572  2,512;_tx_buffer
 0650 3a2f3128 302c3337 292c3734 342c3531  :/1(0,37),744,51
 0660 323b3b7e 2528302c 3230293b 00486172  2;;~%(0,20);.Har
 0670 64776172 65536572 69616c3a 3a486172  dwareSerial::Har
 0680 64776172 65536572 69616c3a 54742830  dwareSerial:Tt(0
 0690 2c333929 3d28302c 3430293d 78734861  ,39)=(0,40)=xsHa
 06a0 72647761 72655365 7269616c 3a004861  rdwareSerial:.Ha
 06b0 72647761 72655365 7269616c 3a3a4861  rdwareSerial::Ha
 06c0 72647761 72655365 7269616c 3a547428  rdwareSerial:Tt(
 06d0 302c3431 293d2830 2c343229 3d787348  0,41)=(0,42)=xsH
 06e0 61726477 61726553 65726961 6c3a0062  ardwareSerial:.b
 06f0 7974653a 7428302c 3433293d 28302c32  yte:t(0,43)=(0,2
 0700 35290069 6e743a74 28302c33 29006c6f  5).int:t(0,3).lo
 0710 6e672075 6e736967 6e656420 696e743a  ng unsigned int:
 0720 7428302c 31382900 75696e74 31365f74  t(0,18).uint16_t
 0730 3a742830 2c343429 3d28302c 31302900  :t(0,44)=(0,10).
 0740 75696e74 33325f74 3a742830 2c343529  uint32_t:t(0,45)
 0750 3d28302c 31382900 63686172 3a742830  =(0,18).char:t(0
 0760 2c343629 3d407338 3b722830 2c343629  ,46)=@s8;r(0,46)
 0770 3b2d3132 383b3132 373b005f 5a4e3550  ;-128;127;._ZN5P
 0780 72696e74 35777269 74654550 4b686a3a  rint5writeEPKhj:
 0790 6628302c 39290074 6869733a 5028302c  f(0,9).this:P(0,
 07a0 3437293d 6b28302c 3438293d 2a28302c  47)=k(0,48)=*(0,
 07b0 35290073 697a653a 5028302c 3929002f  5).size:P(0,9)./
 07c0 686f6d65 2f736368 6c617474 65726d72  home/schlattermr
 07d0 2f2e6172 6475696e 6f31352f 7061636b  /.arduino15/pack
 07e0 61676573 2f617264 75696e6f 2f686172  ages/arduino/har
 07f0 64776172 652f6176 722f312e 382e362f  dware/avr/1.8.6/
 0800 636f7265 732f6172 6475696e 6f2f5072  cores/arduino/Pr
 0810 696e742e 63707000 5f5a4e35 5072696e  int.cpp._ZN5Prin
 0820 7435666c 75736845 763a6628 302c3439  t5flushEv:f(0,49
 0830 293d2830 2c343929 00746869 733a5028  )=(0,49).this:P(
 0840 302c3530 293d6b28 302c3531 293d2a28  0,50)=k(0,51)=*(
 0850 302c3829 002f686f 6d652f73 63686c61  0,8)./home/schla
 0860 74746572 6d722f2e 61726475 696e6f31  ttermr/.arduino1
 0870 352f7061 636b6167 65732f61 72647569  5/packages/ardui
 0880 6e6f2f68 61726477 6172652f 6176722f  no/hardware/avr/
 0890 312e382e 362f636f 7265732f 61726475  1.8.6/cores/ardu
 08a0 696e6f2f 5072696e 742e6800 5f5a4e35  ino/Print.h._ZN5
 08b0 5072696e 74313761 7661696c 61626c65  Print17available
 08c0 466f7257 72697465 45763a66 28302c33  ForWriteEv:f(0,3
 08d0 29007468 69733a50 28302c35 3029005f  ).this:P(0,50)._
 08e0 5a4e3134 48617264 77617265 53657269  ZN14HardwareSeri
 08f0 616c3137 61766169 6c61626c 65466f72  al17availableFor
 0900 57726974 6545763a 6628302c 33290074  WriteEv:f(0,3).t
 0910 6869733a 5028302c 3532293d 6b28302c  his:P(0,52)=k(0,
 0920 3533293d 2a28302c 33312900 2f686f6d  53)=*(0,31)./hom
 0930 652f7363 686c6174 7465726d 722f2e61  e/schlattermr/.a
 0940 72647569 6e6f3135 2f706163 6b616765  rduino15/package
 0950 732f6172 6475696e 6f2f6861 72647761  s/arduino/hardwa
 0960 72652f61 76722f31 2e382e36 2f636f72  re/avr/1.8.6/cor
 0970 65732f61 72647569 6e6f2f48 61726477  es/arduino/Hardw
 0980 61726553 65726961 6c2e6370 70006865  areSerial.cpp.he
 0990 61643a72 28302c32 37290074 61696c3a  ad:r(0,27).tail:
 09a0 7228302c 32372900 5f5a4e31 34486172  r(0,27)._ZN14Har
 09b0 64776172 65536572 69616c34 72656164  dwareSerial4read
 09c0 45763a66 28302c33 29007468 69733a50  Ev:f(0,3).this:P
 09d0 28302c35 32290063 3a722830 2c323629  (0,52).c:r(0,26)
 09e0 005f5a4e 31344861 72647761 72655365  ._ZN14HardwareSe
 09f0 7269616c 34706565 6b45763a 6628302c  rial4peekEv:f(0,
 0a00 3329005f 5a4e3134 48617264 77617265  3)._ZN14Hardware
 0a10 53657269 616c3961 7661696c 61626c65  Serial9available
 0a20 45763a66 28302c33 29005f5a 31375365  Ev:f(0,3)._Z17Se
 0a30 7269616c 305f6176 61696c61 626c6576  rial0_availablev
 0a40 3a662830 2c323929 002f686f 6d652f73  :f(0,29)./home/s
 0a50 63686c61 74746572 6d722f2e 61726475  chlattermr/.ardu
 0a60 696e6f31 352f7061 636b6167 65732f61  ino15/packages/a
 0a70 72647569 6e6f2f68 61726477 6172652f  rduino/hardware/
 0a80 6176722f 312e382e 362f636f 7265732f  avr/1.8.6/cores/
 0a90 61726475 696e6f2f 48617264 77617265  arduino/Hardware
 0aa0 53657269 616c302e 63707000 5f5a4e31  Serial0.cpp._ZN1
 0ab0 34486172 64776172 65536572 69616c31  4HardwareSerial1
 0ac0 375f7478 5f756472 5f656d70 74795f69  7_tx_udr_empty_i
 0ad0 72714576 3a662830 2c343929 005f5a4e  rqEv:f(0,49)._ZN
 0ae0 31344861 72647761 72655365 7269616c  14HardwareSerial
 0af0 35777269 74654568 3a662830 2c392900  5writeEh:f(0,9).
 0b00 633a5028 302c3235 29002f75 73722f6c  c:P(0,25)./usr/l
 0b10 69622f61 76722f69 6e636c75 64652f75  ib/avr/include/u
 0b20 74696c2f 61746f6d 69632e68 00737265  til/atomic.h.sre
 0b30 675f7361 76653a72 28302c32 35290069  g_save:r(0,25).i
 0b40 3a722830 2c323729 005f5a4e 31344861  :r(0,27)._ZN14Ha
 0b50 72647761 72655365 7269616c 35666c75  rdwareSerial5flu
 0b60 73684576 3a662830 2c343929 005f5a31  shEv:f(0,49)._Z1
 0b70 34736572 69616c45 76656e74 52756e76  4serialEventRunv
 0b80 3a662830 2c343929 005f5a31 35696969  :f(0,49)._Z15iii
 0b90 31696969 31696969 31696931 763a6628  1iii1iii1ii1v:f(
 0ba0 302c3534 293d4228 302c3535 293d7228  0,54)=B(0,55)=r(
 0bb0 302c3535 293b2d33 32373638 3b333237  0,55);-32768;327
 0bc0 36373b00 2f746d70 2f617264 75696e6f  67;./tmp/arduino
 0bd0 5f627569 6c645f33 36383235 322f736b  _build_368252/sk
 0be0 65746368 2f6f6266 732e6370 70005f5a  etch/obfs.cpp._Z
 0bf0 36736574 4d656d63 3a662830 2c343929  6setMemc:f(0,49)
 0c00 00693a50 28302c31 31290069 693a2830  .i:P(0,11).ii:(0
 0c10 2c353429 005f5a4e 35507269 6e743770  ,54)._ZN5Print7p
 0c20 72696e74 6c6e4550 4b632e63 6f6e7374  rintlnEPKc.const
 0c30 70726f70 2e363a66 28302c39 2900633a  prop.6:f(0,9).c:
 0c40 5028302c 31332900 5f5f6378 615f7075  P(0,13).__cxa_pu
 0c50 72655f76 69727475 616c3a66 28302c34  re_virtual:f(0,4
 0c60 3929002f 686f6d65 2f736368 6c617474  9)./home/schlatt
 0c70 65726d72 2f2e6172 6475696e 6f31352f  ermr/.arduino15/
 0c80 7061636b 61676573 2f617264 75696e6f  packages/arduino
 0c90 2f686172 64776172 652f6176 722f312e  /hardware/avr/1.
 0ca0 382e362f 636f7265 732f6172 6475696e  8.6/cores/arduin
 0cb0 6f2f6162 692e6370 70005f5f 76656374  o/abi.cpp.__vect
 0cc0 6f725f31 363a4628 302c3439 29002f68  or_16:F(0,49)./h
 0cd0 6f6d652f 7363686c 61747465 726d722f  ome/schlattermr/
 0ce0 2e617264 75696e6f 31352f70 61636b61  .arduino15/packa
 0cf0 6765732f 61726475 696e6f2f 68617264  ges/arduino/hard
 0d00 77617265 2f617672 2f312e38 2e362f63  ware/avr/1.8.6/c
 0d10 6f726573 2f617264 75696e6f 2f776972  ores/arduino/wir
 0d20 696e672e 63006d61 696e3a46 28302c33  ing.c.main:F(0,3
 0d30 29002f68 6f6d652f 7363686c 61747465  )./home/schlatte
 0d40 726d722f 2e617264 75696e6f 31352f70  rmr/.arduino15/p
 0d50 61636b61 6765732f 61726475 696e6f2f  ackages/arduino/
 0d60 68617264 77617265 2f617672 2f312e38  hardware/avr/1.8
 0d70 2e362f63 6f726573 2f617264 75696e6f  .6/cores/arduino
 0d80 2f6d6169 6e2e6370 70002f68 6f6d652f  /main.cpp./home/
 0d90 7363686c 61747465 726d722f 446f6375  schlattermr/Docu
 0da0 6d656e74 732f4353 43452f33 33362f48  ments/CSCE/336/H
 0db0 6f6d6577 6f726b5f 342f6877 30345f64  omework_4/hw04_d
 0dc0 65627567 67696e67 2f687730 345f6465  ebugging/hw04_de
 0dd0 62756767 696e672e 696e6f00 2f686f6d  bugging.ino./hom
 0de0 652f7363 686c6174 7465726d 722f2e61  e/schlattermr/.a
 0df0 72647569 6e6f3135 2f706163 6b616765  rduino15/package
 0e00 732f6172 6475696e 6f2f6861 72647761  s/arduino/hardwa
 0e10 72652f61 76722f31 2e382e36 2f636f72  re/avr/1.8.6/cor
 0e20 65732f61 72647569 6e6f2f77 6972696e  es/arduino/wirin
 0e30 675f6469 67697461 6c2e6300 693a2830  g_digital.c.i:(0
 0e40 2c353629 3d422830 2c343529 00626974  ,56)=B(0,45).bit
 0e50 3a722830 2c323529 00706f72 743a7228  :r(0,25).port:r(
 0e60 302c3235 29005f5f 61646472 31363a72  0,25).__addr16:r
 0e70 28302c34 34290069 3a28302c 35362900  (0,44).i:(0,56).
 0e80 5f474c4f 42414c5f 5f737562 5f495f5f  _GLOBAL__sub_I__
 0e90 5f766563 746f725f 31383a66 28302c34  _vector_18:f(0,4
 0ea0 3929002f 686f6d65 2f736368 6c617474  9)./home/schlatt
 0eb0 65726d72 2f2e6172 6475696e 6f31352f  ermr/.arduino15/
 0ec0 7061636b 61676573 2f617264 75696e6f  packages/arduino
 0ed0 2f686172 64776172 652f6176 722f312e  /hardware/avr/1.
 0ee0 382e362f 636f7265 732f6172 6475696e  8.6/cores/arduin
 0ef0 6f2f5374 7265616d 2e68002f 686f6d65  o/Stream.h./home
 0f00 2f736368 6c617474 65726d72 2f2e6172  /schlattermr/.ar
 0f10 6475696e 6f31352f 7061636b 61676573  duino15/packages
 0f20 2f617264 75696e6f 2f686172 64776172  /arduino/hardwar
 0f30 652f6176 722f312e 382e362f 636f7265  e/avr/1.8.6/core
 0f40 732f6172 6475696e 6f2f4861 72647761  s/arduino/Hardwa
 0f50 72655365 7269616c 5f707269 76617465  reSerial_private
 0f60 2e68005f 5f766563 746f725f 31393a46  .h.__vector_19:F
 0f70 28302c34 3929005f 5f766563 746f725f  (0,49).__vector_
 0f80 31383a46 28302c34 39290069 3a722830  18:F(0,49).i:r(0
 0f90 2c323829 00696969 69316931 69693169  ,28).iiii1i1ii1i
 0fa0 3169693a 5328302c 35342900 69316969  1ii:S(0,54).i1ii
 0fb0 31693169 69693131 69693a53 28302c35  1i1iii11ii:S(0,5
 0fc0 34290069 69696969 31696969 31696969  4).iiiii1iii1iii
 0fd0 3a532830 2c353429 00706f72 745f746f  :S(0,54).port_to
 0fe0 5f696e70 75745f50 474d3a53 28302c35  _input_PGM:S(0,5
 0ff0 37293d61 7228302c 3338293b 303b343b  7)=ar(0,38);0;4;
 1000 28302c35 38293d6b 28302c34 34290064  (0,58)=k(0,44).d
 1010 69676974 616c5f70 696e5f74 6f5f706f  igital_pin_to_po
 1020 72745f50 474d3a53 28302c35 39293d61  rt_PGM:S(0,59)=a
 1030 7228302c 3338293b 303b3139 3b28302c  r(0,38);0;19;(0,
 1040 3630293d 6b28302c 3631293d 28302c32  60)=k(0,61)=(0,2
 1050 36290064 69676974 616c5f70 696e5f74  6).digital_pin_t
 1060 6f5f6269 745f6d61 736b5f50 474d3a53  o_bit_mask_PGM:S
 1070 28302c35 39290064 69676974 616c5f70  (0,59).digital_p
 1080 696e5f74 6f5f7469 6d65725f 50474d3a  in_to_timer_PGM:
 1090 5328302c 35392900 69696969 31313131  S(0,59).iiii1111
 10a0 31696969 31316969 3a532830 2c353429  1iii11ii:S(0,54)
 10b0 00693169 69316969 69316969 693a5328  .i1ii1iii1iii:S(
 10c0 302c3534 29006931 69316969 31696931  0,54).i1i1ii1ii1
 10d0 3169693a 5328302c 35342900 69693131  1ii:S(0,54).ii11
 10e0 69313169 69316931 3a532830 2c353429  i11ii1i1:S(0,54)
 10f0 00696931 69693169 31316969 3169313a  .ii1ii1i11ii1i1:
 1100 5328302c 35342900 69316969 31693169  S(0,54).i1ii1i1i
 1110 69693169 693a5328 302c3534 29006969  ii1ii:S(0,54).ii
 1120 69693169 31696969 3169693a 5328302c  ii1i1iii1ii:S(0,
 1130 35342900 69316931 69696969 31316969  54).i1i1iiii11ii
 1140 3a532830 2c353429 00693169 69316931  :S(0,54).i1ii1i1
 1150 31696931 69313a53 28302c35 34290069  1ii1i1:S(0,54).i
 1160 31693131 69313169 69316931 3a532830  1i11i11ii1i1:S(0
 1170 2c353429 0074696d 6572305f 6f766572  ,54).timer0_over
 1180 666c6f77 5f636f75 6e743a53 28302c36  flow_count:S(0,6
 1190 32293d42 28302c36 33293d40 7333323b  2)=B(0,63)=@s32;
 11a0 7228302c 3633293b 303b3033 37373737  r(0,63);0;037777
 11b0 37373737 37373b00 74696d65 72305f66  777777;.timer0_f
 11c0 72616374 3a532830 2c323629 0074696d  ract:S(0,26).tim
 11d0 6572305f 6d696c6c 69733a53 28302c36  er0_millis:S(0,6
 11e0 32290053 65726961 6c3a5328 302c3432  2).Serial:S(0,42
 11f0 2900                                 ).              
Contents of section .comment:
 0000 4743433a 2028474e 55292035 2e342e30  GCC: (GNU) 5.4.0
 0010 00                                   .               
Contents of section .note.gnu.avr.deviceinfo:
 0000 04000000 2d000000 01000000 41565200  ....-.......AVR.
 0010 00000000 00800000 00010000 00080000  ................
 0020 00000000 00040000 08000000 01000000  ................
 0030 0061746d 65676133 32387000 00000000  .atmega328p.....
Contents of section .debug_info:
 0000 f0050000 02000000 00000401 00000000  ................
 0010 00000000 020f0000 00010803 17000000  ................
 0020 02070414 00000005 1b000000 ff030006  ................
 0030 20000000 00002200 00000105 03000081   .....".........
 0040 00072900 00000000 14000000 010503c6  ..).............
 0050 00800008 2e000000 00001400 00000105  ................
 0060 03c00080 00093500 00000000 14000000  ......5.........
 0070 010503c1 0080000a 3c000000 00001400  ........<.......
 0080 00000105 03c20080 000b4300 00000000  ..........C.....
 0090 1b000000 010503c4 0080000c 49000000  ............I...
 00a0 00001400 00000105 03bd0080 000d4f00  ..............O.
 00b0 00000000 14000000 010503b8 0080000e  ................
 00c0 54000000 00001400 00000105 03bc0080  T...............
 00d0 000f5900 00000000 14000000 010503b9  ..Y.............
 00e0 00800010 5e000000 00001400 00000105  ....^...........
 00f0 03bb0080 00116300 00000000 14000000  ......c.........
 0100 010503ba 00800012 68000000 00001400  ........h.......
 0110 00000105 036f0080 00136f00 00000000  .....o....o.....
 0120 14000000 01050336 00800014 75000000  .......6....u...
 0130 00001400 00000105 03800080 00157c00  ..............|.
 0140 00000000 14000000 01050381 00800016  ................
 0150 83000000 00001400 00000105 03820080  ................
 0160 00178a00 00000000 1b000000 01050384  ................
 0170 00800018 90000000 00001b00 00000105  ................
 0180 03880080 00199600 00000000 1b000000  ................
 0190 0105038a 0080001a 9c000000 00001b00  ................
 01a0 00000105 03860080 001ba100 00000000  ................
 01b0 14000000 01050343 0080001c a7000000  .......C........
 01c0 00001400 00000105 03700080 001dae00  .........p......
 01d0 00000000 14000000 01050337 0080001e  ...........7....
 01e0 b4000000 00001400 00000105 03b00080  ................
 01f0 001fbb00 00000000 14000000 010503b1  ................
 0200 00800020 c2000000 00001400 00000105  ... ............
 0210 03b20080 0021c800 00000000 14000000  .....!..........
 0220 010503b4 00800022 ce000000 00001400  ......."........
 0230 00000105 03b30080 0023d400 00000000  .........#......
 0240 14000000 010503b6 00800024 d9000000  ...........$....
 0250 00001400 00000105 03430080 0025df00  .........C...%..
 0260 00000000 14000000 0105037c 00800026  ...........|...&
 0270 e5000000 00001b00 00000105 03780080  .............x..
 0280 0027e900 00000000 14000000 0105037a  .'.............z
 0290 00800028 f0000000 00001400 00000105  ...(............
 02a0 037b0080 0029f700 00000000 14000000  .{...)..........
 02b0 0105037e 0080002a fd000000 00001400  ...~...*........
 02c0 00000105 03500080 002b0201 00000000  .....P...+......
 02d0 14000000 0105037f 0080002c 08010000  ...........,....
 02e0 00001400 00000105 03250080 002d0e01  .........%...-..
 02f0 00000000 14000000 01050324 0080002e  ...........$....
 0300 13010000 00001400 00000105 03230080  .............#..
 0310 002f1801 00000000 14000000 01050328  ./.............(
 0320 00800030 1e010000 00001400 00000105  ...0............
 0330 03270080 00312301 00000000 14000000  .'...1#.........
 0340 01050326 00800032 28010000 00001400  ...&...2(.......
 0350 00000105 032b0080 00332e01 00000000  .....+...3......
 0360 14000000 0105032a 00800034 33010000  .......*...43...
 0370 00001400 00000105 03290080 00353801  .........)...58.
 0380 00000000 14000000 01050348 00800036  ...........H...6
 0390 3e010000 00001400 00000105 03470080  >............G..
 03a0 00374401 00000000 14000000 01050346  .7D............F
 03b0 00800038 4a010000 00001400 00000105  ...8J...........
 03c0 03450080 00395101 00000000 14000000  .E...9Q.........
 03d0 01050344 0080003a 58010000 00001400  ...D...:X.......
 03e0 00000105 036e0080 003b5f01 00000000  .....n...;_.....
 03f0 14000000 01050335 0080003c 65010000  .......5...<e...
 0400 00001400 00000105 03430080 003d6b01  .........C...=k.
 0410 00000000 14000000 01050369 0080003e  ...........i...>
 0420 71010000 00001400 00000105 033d0080  q............=..
 0430 003f7701 00000000 14000000 0105033c  .?w............<
 0440 00800040 7c010000 00001400 00000105  ...@|...........
 0450 03680080 00418201 00000000 14000000  .h...A..........
 0460 0105036d 00800042 89010000 00001400  ...m...B........
 0470 00000105 036c0080 00439001 00000000  .....l...C......
 0480 14000000 0105036b 00800044 97010000  .......k...D....
 0490 00001400 00000105 033b0080 00459d01  .........;...E..
 04a0 00000000 14000000 0105034e 00800046  ...........N...F
 04b0 a2010000 00001400 00000105 034d0080  .............M..
 04c0 0047a701 00000000 14000000 0105034c  .G.............L
 04d0 00800048 ac010000 00001400 00000105  ...H............
 04e0 03600080 0049b301 00000000 14000000  .`...I..........
 04f0 01050364 0080004a b7010000 00001400  ...d...J........
 0500 00000105 03660080 004bbe01 00000000  .....f...K......
 0510 14000000 01050361 0080004c c4010000  .......a...L....
 0520 00001400 00000105 035f0080 004dc901  ........._...M..
 0530 00000000 1b000000 0105035d 0080004e  ...........]...N
 0540 cc010000 00001400 00000105 03570080  .............W..
 0550 004fd301 00000000 14000000 01050355  .O.............U
 0560 00800050 d9010000 00001400 00000105  ...P............
 0570 03540080 0051df01 00000000 14000000  .T...Q..........
 0580 01050353 00800052 e4010000 00001400  ...S...R........
 0590 00000105 034b0080 0053eb01 00000000  .....K...S......
 05a0 14000000 0105034a 00800054 f2010000  .......J...T....
 05b0 00001400 00000105 033e0080 0055f901  .........>...U..
 05c0 00000000 1b000000 01050341 00800056  ...........A...V
 05d0 fe010000 00001400 00000105 03400080  .............@..
 05e0 00570302 00000000 14000000 0105033f  .W.............?
 05f0 00800000                             ....            
Contents of section .debug_abbrev:
 0000 01110125 0e100600 00022400 030e0b0b  ...%......$.....
 0010 3e0b0000 03240003 0e0b0b3e 0b000004  >....$.....>....
 0020 01014913 00000521 0049132f 05000006  ..I....!.I./....
 0030 3400030e 3a0b3b0b 49133f0c 020a0000  4...:.;.I.?.....
 0040 07340003 0e3a0b3b 0b49133f 0c020a00  .4...:.;.I.?....
 0050 00083400 030e3a0b 3b0b4913 3f0c020a  ..4...:.;.I.?...
 0060 00000934 00030e3a 0b3b0b49 133f0c02  ...4...:.;.I.?..
 0070 0a00000a 3400030e 3a0b3b0b 49133f0c  ....4...:.;.I.?.
 0080 020a0000 0b340003 0e3a0b3b 0b49133f  .....4...:.;.I.?
 0090 0c020a00 000c3400 030e3a0b 3b0b4913  ......4...:.;.I.
 00a0 3f0c020a 00000d34 00030e3a 0b3b0b49  ?......4...:.;.I
 00b0 133f0c02 0a00000e 3400030e 3a0b3b0b  .?......4...:.;.
 00c0 49133f0c 020a0000 0f340003 0e3a0b3b  I.?......4...:.;
 00d0 0b49133f 0c020a00 00103400 030e3a0b  .I.?......4...:.
 00e0 3b0b4913 3f0c020a 00001134 00030e3a  ;.I.?......4...:
 00f0 0b3b0b49 133f0c02 0a000012 3400030e  .;.I.?......4...
 0100 3a0b3b0b 49133f0c 020a0000 13340003  :.;.I.?......4..
 0110 0e3a0b3b 0b49133f 0c020a00 00143400  .:.;.I.?......4.
 0120 030e3a0b 3b0b4913 3f0c020a 00001534  ..:.;.I.?......4
 0130 00030e3a 0b3b0b49 133f0c02 0a000016  ...:.;.I.?......
 0140 3400030e 3a0b3b0b 49133f0c 020a0000  4...:.;.I.?.....
 0150 17340003 0e3a0b3b 0b49133f 0c020a00  .4...:.;.I.?....
 0160 00183400 030e3a0b 3b0b4913 3f0c020a  ..4...:.;.I.?...
 0170 00001934 00030e3a 0b3b0b49 133f0c02  ...4...:.;.I.?..
 0180 0a00001a 3400030e 3a0b3b0b 49133f0c  ....4...:.;.I.?.
 0190 020a0000 1b340003 0e3a0b3b 0b49133f  .....4...:.;.I.?
 01a0 0c020a00 001c3400 030e3a0b 3b0b4913  ......4...:.;.I.
 01b0 3f0c020a 00001d34 00030e3a 0b3b0b49  ?......4...:.;.I
 01c0 133f0c02 0a00001e 3400030e 3a0b3b0b  .?......4...:.;.
 01d0 49133f0c 020a0000 1f340003 0e3a0b3b  I.?......4...:.;
 01e0 0b49133f 0c020a00 00203400 030e3a0b  .I.?..... 4...:.
 01f0 3b0b4913 3f0c020a 00002134 00030e3a  ;.I.?.....!4...:
 0200 0b3b0b49 133f0c02 0a000022 3400030e  .;.I.?....."4...
 0210 3a0b3b0b 49133f0c 020a0000 23340003  :.;.I.?.....#4..
 0220 0e3a0b3b 0b49133f 0c020a00 00243400  .:.;.I.?.....$4.
 0230 030e3a0b 3b0b4913 3f0c020a 00002534  ..:.;.I.?.....%4
 0240 00030e3a 0b3b0b49 133f0c02 0a000026  ...:.;.I.?.....&
 0250 3400030e 3a0b3b0b 49133f0c 020a0000  4...:.;.I.?.....
 0260 27340003 0e3a0b3b 0b49133f 0c020a00  '4...:.;.I.?....
 0270 00283400 030e3a0b 3b0b4913 3f0c020a  .(4...:.;.I.?...
 0280 00002934 00030e3a 0b3b0b49 133f0c02  ..)4...:.;.I.?..
 0290 0a00002a 3400030e 3a0b3b0b 49133f0c  ...*4...:.;.I.?.
 02a0 020a0000 2b340003 0e3a0b3b 0b49133f  ....+4...:.;.I.?
 02b0 0c020a00 002c3400 030e3a0b 3b0b4913  .....,4...:.;.I.
 02c0 3f0c020a 00002d34 00030e3a 0b3b0b49  ?.....-4...:.;.I
 02d0 133f0c02 0a00002e 3400030e 3a0b3b0b  .?......4...:.;.
 02e0 49133f0c 020a0000 2f340003 0e3a0b3b  I.?...../4...:.;
 02f0 0b49133f 0c020a00 00303400 030e3a0b  .I.?.....04...:.
 0300 3b0b4913 3f0c020a 00003134 00030e3a  ;.I.?.....14...:
 0310 0b3b0b49 133f0c02 0a000032 3400030e  .;.I.?.....24...
 0320 3a0b3b0b 49133f0c 020a0000 33340003  :.;.I.?.....34..
 0330 0e3a0b3b 0b49133f 0c020a00 00343400  .:.;.I.?.....44.
 0340 030e3a0b 3b0b4913 3f0c020a 00003534  ..:.;.I.?.....54
 0350 00030e3a 0b3b0b49 133f0c02 0a000036  ...:.;.I.?.....6
 0360 3400030e 3a0b3b0b 49133f0c 020a0000  4...:.;.I.?.....
 0370 37340003 0e3a0b3b 0b49133f 0c020a00  74...:.;.I.?....
 0380 00383400 030e3a0b 3b0b4913 3f0c020a  .84...:.;.I.?...
 0390 00003934 00030e3a 0b3b0b49 133f0c02  ..94...:.;.I.?..
 03a0 0a00003a 3400030e 3a0b3b0b 49133f0c  ...:4...:.;.I.?.
 03b0 020a0000 3b340003 0e3a0b3b 0b49133f  ....;4...:.;.I.?
 03c0 0c020a00 003c3400 030e3a0b 3b0b4913  .....<4...:.;.I.
 03d0 3f0c020a 00003d34 00030e3a 0b3b0b49  ?.....=4...:.;.I
 03e0 133f0c02 0a00003e 3400030e 3a0b3b0b  .?.....>4...:.;.
 03f0 49133f0c 020a0000 3f340003 0e3a0b3b  I.?.....?4...:.;
 0400 0b49133f 0c020a00 00403400 030e3a0b  .I.?.....@4...:.
 0410 3b0b4913 3f0c020a 00004134 00030e3a  ;.I.?.....A4...:
 0420 0b3b0b49 133f0c02 0a000042 3400030e  .;.I.?.....B4...
 0430 3a0b3b0b 49133f0c 020a0000 43340003  :.;.I.?.....C4..
 0440 0e3a0b3b 0b49133f 0c020a00 00443400  .:.;.I.?.....D4.
 0450 030e3a0b 3b0b4913 3f0c020a 00004534  ..:.;.I.?.....E4
 0460 00030e3a 0b3b0b49 133f0c02 0a000046  ...:.;.I.?.....F
 0470 3400030e 3a0b3b0b 49133f0c 020a0000  4...:.;.I.?.....
 0480 47340003 0e3a0b3b 0b49133f 0c020a00  G4...:.;.I.?....
 0490 00483400 030e3a0b 3b0b4913 3f0c020a  .H4...:.;.I.?...
 04a0 00004934 00030e3a 0b3b0b49 133f0c02  ..I4...:.;.I.?..
 04b0 0a00004a 3400030e 3a0b3b0b 49133f0c  ...J4...:.;.I.?.
 04c0 020a0000 4b340003 0e3a0b3b 0b49133f  ....K4...:.;.I.?
 04d0 0c020a00 004c3400 030e3a0b 3b0b4913  .....L4...:.;.I.
 04e0 3f0c020a 00004d34 00030e3a 0b3b0b49  ?.....M4...:.;.I
 04f0 133f0c02 0a00004e 3400030e 3a0b3b0b  .?.....N4...:.;.
 0500 49133f0c 020a0000 4f340003 0e3a0b3b  I.?.....O4...:.;
 0510 0b49133f 0c020a00 00503400 030e3a0b  .I.?.....P4...:.
 0520 3b0b4913 3f0c020a 00005134 00030e3a  ;.I.?.....Q4...:
 0530 0b3b0b49 133f0c02 0a000052 3400030e  .;.I.?.....R4...
 0540 3a0b3b0b 49133f0c 020a0000 53340003  :.;.I.?.....S4..
 0550 0e3a0b3b 0b49133f 0c020a00 00543400  .:.;.I.?.....T4.
 0560 030e3a0b 3b0b4913 3f0c020a 00005534  ..:.;.I.?.....U4
 0570 00030e3a 0b3b0b49 133f0c02 0a000056  ...:.;.I.?.....V
 0580 3400030e 3a0b3b0b 49133f0c 020a0000  4...:.;.I.?.....
 0590 57340003 0e3a0b3b 0b49133f 0c020a00  W4...:.;.I.?....
 05a0 0000                                 ..              
Contents of section .debug_line:
 0000 16000000 02001000 00000201 fb0e0a00  ................
 0010 01010101 00000001 0000               ..........      
Contents of section .debug_str:
 0000 6176722d 6c696263 20322e30 2e300075  avr-libc 2.0.0.u
 0010 696e7438 5f740075 696e7431 365f7400  int8_t.uint16_t.
 0020 5f5f6565 70726f6d 00554452 30005543  __eeprom.UDR0.UC
 0030 53523041 00554353 52304200 55435352  SR0A.UCSR0B.UCSR
 0040 30430055 42525230 00545741 4d520054  0C.UBRR0.TWAMR.T
 0050 57425200 54574352 00545753 52005457  WBR.TWCR.TWSR.TW
 0060 44520054 57415200 54494d53 4b310054  DR.TWAR.TIMSK1.T
 0070 49465231 00544343 52314100 54434352  IFR1.TCCR1A.TCCR
 0080 31420054 43435231 43005443 4e543100  1B.TCCR1C.TCNT1.
 0090 4f435231 41004f43 52314200 49435231  OCR1A.OCR1B.ICR1
 00a0 00475443 43520054 494d534b 32005449  .GTCCR.TIMSK2.TI
 00b0 46523200 54434352 32410054 43435232  FR2.TCCR2A.TCCR2
 00c0 42005443 4e543200 4f435232 42004f43  B.TCNT2.OCR2B.OC
 00d0 52324100 41535352 00475443 43520041  R2A.ASSR.GTCCR.A
 00e0 444d5558 00414443 00414443 53524100  DMUX.ADC.ADCSRA.
 00f0 41444353 52420044 49445230 00414353  ADCSRB.DIDR0.ACS
 0100 52004449 44523100 504f5254 42004444  R.DIDR1.PORTB.DD
 0110 52420050 494e4200 504f5254 43004444  RB.PINB.PORTC.DD
 0120 52430050 494e4300 504f5254 44004444  RC.PINC.PORTD.DD
 0130 52440050 494e4400 4f435230 42004f43  RD.PIND.OCR0B.OC
 0140 52304100 54434e54 30005443 43523042  R0A.TCNT0.TCCR0B
 0150 00544343 52304100 54494d53 4b300054  .TCCR0A.TIMSK0.T
 0160 49465230 00475443 43520045 49435241  IFR0.GTCCR.EICRA
 0170 0045494d 534b0045 49465200 50434943  .EIMSK.EIFR.PCIC
 0180 52005043 4d534b32 0050434d 534b3100  R.PCMSK2.PCMSK1.
 0190 50434d53 4b300050 43494652 00535044  PCMSK0.PCIFR.SPD
 01a0 52005350 53520053 50435200 57445443  R.SPSR.SPCR.WDTC
 01b0 53520050 5252004f 53434341 4c00434c  SR.PRR.OSCCAL.CL
 01c0 4b505200 53524547 00535000 53504d43  KPR.SREG.SP.SPMC
 01d0 5352004d 43554352 004d4355 53520053  SR.MCUCR.MCUSR.S
 01e0 4d435200 4750494f 52320047 50494f52  MCR.GPIOR2.GPIOR
 01f0 31004750 494f5230 00454541 52004545  1.GPIOR0.EEAR.EE
 0200 44520045 45435200                    DR.EECR.        

Disassembly of section .text:

00000000 <__vectors>:
       0:	0c 94 58 00 	jmp	0xb0	; 0xb0 <__ctors_end>
       4:	0c 94 80 00 	jmp	0x100	; 0x100 <__bad_interrupt>
       8:	0c 94 80 00 	jmp	0x100	; 0x100 <__bad_interrupt>
       c:	0c 94 80 00 	jmp	0x100	; 0x100 <__bad_interrupt>
      10:	0c 94 80 00 	jmp	0x100	; 0x100 <__bad_interrupt>
      14:	0c 94 80 00 	jmp	0x100	; 0x100 <__bad_interrupt>
      18:	0c 94 80 00 	jmp	0x100	; 0x100 <__bad_interrupt>
      1c:	0c 94 80 00 	jmp	0x100	; 0x100 <__bad_interrupt>
      20:	0c 94 80 00 	jmp	0x100	; 0x100 <__bad_interrupt>
      24:	0c 94 80 00 	jmp	0x100	; 0x100 <__bad_interrupt>
      28:	0c 94 80 00 	jmp	0x100	; 0x100 <__bad_interrupt>
      2c:	0c 94 80 00 	jmp	0x100	; 0x100 <__bad_interrupt>
      30:	0c 94 80 00 	jmp	0x100	; 0x100 <__bad_interrupt>
      34:	0c 94 80 00 	jmp	0x100	; 0x100 <__bad_interrupt>
      38:	0c 94 80 00 	jmp	0x100	; 0x100 <__bad_interrupt>
      3c:	0c 94 80 00 	jmp	0x100	; 0x100 <__bad_interrupt>
      40:	0c 94 62 03 	jmp	0x6c4	; 0x6c4 <__vector_16>
      44:	0c 94 80 00 	jmp	0x100	; 0x100 <__bad_interrupt>
      48:	0c 94 d2 03 	jmp	0x7a4	; 0x7a4 <__vector_18>
      4c:	0c 94 ac 03 	jmp	0x758	; 0x758 <__vector_19>
      50:	0c 94 80 00 	jmp	0x100	; 0x100 <__bad_interrupt>
      54:	0c 94 80 00 	jmp	0x100	; 0x100 <__bad_interrupt>
      58:	0c 94 80 00 	jmp	0x100	; 0x100 <__bad_interrupt>
      5c:	0c 94 80 00 	jmp	0x100	; 0x100 <__bad_interrupt>
      60:	0c 94 80 00 	jmp	0x100	; 0x100 <__bad_interrupt>
      64:	0c 94 80 00 	jmp	0x100	; 0x100 <__bad_interrupt>

00000068 <__trampolines_end>:
      68:	00 00       	nop
      6a:	00 00       	nop
      6c:	23 00       	.word	0x0023	; ????
      6e:	26 00       	.word	0x0026	; ????
      70:	29 00       	.word	0x0029	; ????

00000072 <digital_pin_to_port_PGM>:
      72:	04 04 04 04 04 04 04 04 02 02 02 02 02 02 03 03     ................
      82:	03 03 03 03                                         ....

00000086 <digital_pin_to_bit_mask_PGM>:
      86:	01 02 04 08 10 20 40 80 01 02 04 08 10 20 01 02     ..... @...... ..
      96:	04 08 10 20                                         ... 

0000009a <digital_pin_to_timer_PGM>:
      9a:	00 00 00 08 00 02 01 00 00 03 04 07 00 00 00 00     ................
      aa:	00 00 00 00                                         ....

000000ae <__ctors_start>:
      ae:	76 10       	cpse	r7, r6

000000b0 <__ctors_end>:
      b0:	11 24       	eor	r1, r1
      b2:	1f be       	out	0x3f, r1	; 63
      b4:	cf ef       	ldi	r28, 0xFF	; 255
      b6:	d8 e0       	ldi	r29, 0x08	; 8
      b8:	de bf       	out	0x3e, r29	; 62
      ba:	cd bf       	out	0x3d, r28	; 61

000000bc <__do_copy_data>:
      bc:	11 e0       	ldi	r17, 0x01	; 1
      be:	a0 e0       	ldi	r26, 0x00	; 0
      c0:	b1 e0       	ldi	r27, 0x01	; 1
      c2:	e0 eb       	ldi	r30, 0xB0	; 176
      c4:	f1 e2       	ldi	r31, 0x21	; 33
      c6:	02 c0       	rjmp	.+4      	; 0xcc <__do_copy_data+0x10>
      c8:	05 90       	lpm	r0, Z+
      ca:	0d 92       	st	X+, r0
      cc:	ae 34       	cpi	r26, 0x4E	; 78
      ce:	b1 07       	cpc	r27, r17
      d0:	d9 f7       	brne	.-10     	; 0xc8 <__do_copy_data+0xc>

000000d2 <__do_clear_bss>:
      d2:	21 e0       	ldi	r18, 0x01	; 1
      d4:	ae e4       	ldi	r26, 0x4E	; 78
      d6:	b1 e0       	ldi	r27, 0x01	; 1
      d8:	01 c0       	rjmp	.+2      	; 0xdc <.do_clear_bss_start>

000000da <.do_clear_bss_loop>:
      da:	1d 92       	st	X+, r1

000000dc <.do_clear_bss_start>:
      dc:	a4 3f       	cpi	r26, 0xF4	; 244
      de:	b2 07       	cpc	r27, r18
      e0:	e1 f7       	brne	.-8      	; 0xda <.do_clear_bss_loop>

000000e2 <__do_global_ctors>:
      e2:	10 e0       	ldi	r17, 0x00	; 0
      e4:	c8 e5       	ldi	r28, 0x58	; 88
      e6:	d0 e0       	ldi	r29, 0x00	; 0
      e8:	04 c0       	rjmp	.+8      	; 0xf2 <__do_global_ctors+0x10>
      ea:	21 97       	sbiw	r28, 0x01	; 1
      ec:	fe 01       	movw	r30, r28
      ee:	0e 94 cb 10 	call	0x2196	; 0x2196 <__tablejump2__>
      f2:	c7 35       	cpi	r28, 0x57	; 87
      f4:	d1 07       	cpc	r29, r17
      f6:	c9 f7       	brne	.-14     	; 0xea <__do_global_ctors+0x8>
      f8:	0e 94 04 04 	call	0x808	; 0x808 <main>
      fc:	0c 94 d6 10 	jmp	0x21ac	; 0x21ac <_exit>

00000100 <__bad_interrupt>:
     100:	0c 94 00 00 	jmp	0	; 0x0 <__vectors>

00000104 <_ZN5Print5writeEPKhj>:
     104:	cf 92       	push	r12
     106:	df 92       	push	r13
     108:	ef 92       	push	r14
     10a:	ff 92       	push	r15
     10c:	0f 93       	push	r16
     10e:	1f 93       	push	r17
     110:	cf 93       	push	r28
     112:	df 93       	push	r29
     114:	6c 01       	movw	r12, r24
     116:	7a 01       	movw	r14, r20
     118:	8b 01       	movw	r16, r22
     11a:	c0 e0       	ldi	r28, 0x00	; 0
     11c:	d0 e0       	ldi	r29, 0x00	; 0
     11e:	ce 15       	cp	r28, r14
     120:	df 05       	cpc	r29, r15
     122:	81 f0       	breq	.+32     	; 0x144 <_ZN5Print5writeEPKhj+0x40>
     124:	d8 01       	movw	r26, r16
     126:	6d 91       	ld	r22, X+
     128:	8d 01       	movw	r16, r26
     12a:	d6 01       	movw	r26, r12
     12c:	ed 91       	ld	r30, X+
     12e:	fc 91       	ld	r31, X
     130:	01 90       	ld	r0, Z+
     132:	f0 81       	ld	r31, Z
     134:	e0 2d       	mov	r30, r0
     136:	c6 01       	movw	r24, r12
     138:	09 95       	icall
     13a:	89 2b       	or	r24, r25
     13c:	11 f0       	breq	.+4      	; 0x142 <_ZN5Print5writeEPKhj+0x3e>
     13e:	21 96       	adiw	r28, 0x01	; 1
     140:	ee cf       	rjmp	.-36     	; 0x11e <_ZN5Print5writeEPKhj+0x1a>
     142:	7e 01       	movw	r14, r28
     144:	c7 01       	movw	r24, r14
     146:	df 91       	pop	r29
     148:	cf 91       	pop	r28
     14a:	1f 91       	pop	r17
     14c:	0f 91       	pop	r16
     14e:	ff 90       	pop	r15
     150:	ef 90       	pop	r14
     152:	df 90       	pop	r13
     154:	cf 90       	pop	r12
     156:	08 95       	ret

00000158 <_ZN5Print5flushEv>:
     158:	08 95       	ret

0000015a <_ZN5Print17availableForWriteEv>:
     15a:	80 e0       	ldi	r24, 0x00	; 0
     15c:	90 e0       	ldi	r25, 0x00	; 0
     15e:	08 95       	ret

00000160 <_ZN14HardwareSerial17availableForWriteEv>:
     160:	fc 01       	movw	r30, r24
     162:	53 8d       	ldd	r21, Z+27	; 0x1b
     164:	44 8d       	ldd	r20, Z+28	; 0x1c
     166:	25 2f       	mov	r18, r21
     168:	30 e0       	ldi	r19, 0x00	; 0
     16a:	84 2f       	mov	r24, r20
     16c:	90 e0       	ldi	r25, 0x00	; 0
     16e:	82 1b       	sub	r24, r18
     170:	93 0b       	sbc	r25, r19
     172:	54 17       	cp	r21, r20
     174:	10 f0       	brcs	.+4      	; 0x17a <_ZN14HardwareSerial17availableForWriteEv+0x1a>
     176:	cf 96       	adiw	r24, 0x3f	; 63
     178:	08 95       	ret
     17a:	01 97       	sbiw	r24, 0x01	; 1
     17c:	08 95       	ret

0000017e <_ZN14HardwareSerial4readEv>:
     17e:	fc 01       	movw	r30, r24
     180:	91 8d       	ldd	r25, Z+25	; 0x19
     182:	82 8d       	ldd	r24, Z+26	; 0x1a
     184:	98 17       	cp	r25, r24
     186:	61 f0       	breq	.+24     	; 0x1a0 <_ZN14HardwareSerial4readEv+0x22>
     188:	82 8d       	ldd	r24, Z+26	; 0x1a
     18a:	df 01       	movw	r26, r30
     18c:	a8 0f       	add	r26, r24
     18e:	b1 1d       	adc	r27, r1
     190:	5d 96       	adiw	r26, 0x1d	; 29
     192:	8c 91       	ld	r24, X
     194:	92 8d       	ldd	r25, Z+26	; 0x1a
     196:	9f 5f       	subi	r25, 0xFF	; 255
     198:	9f 73       	andi	r25, 0x3F	; 63
     19a:	92 8f       	std	Z+26, r25	; 0x1a
     19c:	90 e0       	ldi	r25, 0x00	; 0
     19e:	08 95       	ret
     1a0:	8f ef       	ldi	r24, 0xFF	; 255
     1a2:	9f ef       	ldi	r25, 0xFF	; 255
     1a4:	08 95       	ret

000001a6 <_ZN14HardwareSerial4peekEv>:
     1a6:	fc 01       	movw	r30, r24
     1a8:	91 8d       	ldd	r25, Z+25	; 0x19
     1aa:	82 8d       	ldd	r24, Z+26	; 0x1a
     1ac:	98 17       	cp	r25, r24
     1ae:	31 f0       	breq	.+12     	; 0x1bc <_ZN14HardwareSerial4peekEv+0x16>
     1b0:	82 8d       	ldd	r24, Z+26	; 0x1a
     1b2:	e8 0f       	add	r30, r24
     1b4:	f1 1d       	adc	r31, r1
     1b6:	85 8d       	ldd	r24, Z+29	; 0x1d
     1b8:	90 e0       	ldi	r25, 0x00	; 0
     1ba:	08 95       	ret
     1bc:	8f ef       	ldi	r24, 0xFF	; 255
     1be:	9f ef       	ldi	r25, 0xFF	; 255
     1c0:	08 95       	ret

000001c2 <_ZN14HardwareSerial9availableEv>:
     1c2:	fc 01       	movw	r30, r24
     1c4:	91 8d       	ldd	r25, Z+25	; 0x19
     1c6:	22 8d       	ldd	r18, Z+26	; 0x1a
     1c8:	89 2f       	mov	r24, r25
     1ca:	90 e0       	ldi	r25, 0x00	; 0
     1cc:	80 5c       	subi	r24, 0xC0	; 192
     1ce:	9f 4f       	sbci	r25, 0xFF	; 255
     1d0:	82 1b       	sub	r24, r18
     1d2:	91 09       	sbc	r25, r1
     1d4:	8f 73       	andi	r24, 0x3F	; 63
     1d6:	99 27       	eor	r25, r25
     1d8:	08 95       	ret

000001da <_Z17Serial0_availablev>:
     1da:	87 e5       	ldi	r24, 0x57	; 87
     1dc:	91 e0       	ldi	r25, 0x01	; 1
     1de:	0e 94 e1 00 	call	0x1c2	; 0x1c2 <_ZN14HardwareSerial9availableEv>
     1e2:	21 e0       	ldi	r18, 0x01	; 1
     1e4:	89 2b       	or	r24, r25
     1e6:	09 f4       	brne	.+2      	; 0x1ea <_Z17Serial0_availablev+0x10>
     1e8:	20 e0       	ldi	r18, 0x00	; 0
     1ea:	82 2f       	mov	r24, r18
     1ec:	08 95       	ret

000001ee <_ZN14HardwareSerial17_tx_udr_empty_irqEv>:
     1ee:	fc 01       	movw	r30, r24
     1f0:	84 8d       	ldd	r24, Z+28	; 0x1c
     1f2:	df 01       	movw	r26, r30
     1f4:	a8 0f       	add	r26, r24
     1f6:	b1 1d       	adc	r27, r1
     1f8:	a3 5a       	subi	r26, 0xA3	; 163
     1fa:	bf 4f       	sbci	r27, 0xFF	; 255
     1fc:	2c 91       	ld	r18, X
     1fe:	84 8d       	ldd	r24, Z+28	; 0x1c
     200:	90 e0       	ldi	r25, 0x00	; 0
     202:	01 96       	adiw	r24, 0x01	; 1
     204:	8f 73       	andi	r24, 0x3F	; 63
     206:	99 27       	eor	r25, r25
     208:	84 8f       	std	Z+28, r24	; 0x1c
     20a:	a6 89       	ldd	r26, Z+22	; 0x16
     20c:	b7 89       	ldd	r27, Z+23	; 0x17
     20e:	2c 93       	st	X, r18
     210:	a0 89       	ldd	r26, Z+16	; 0x10
     212:	b1 89       	ldd	r27, Z+17	; 0x11
     214:	8c 91       	ld	r24, X
     216:	83 70       	andi	r24, 0x03	; 3
     218:	80 64       	ori	r24, 0x40	; 64
     21a:	8c 93       	st	X, r24
     21c:	93 8d       	ldd	r25, Z+27	; 0x1b
     21e:	84 8d       	ldd	r24, Z+28	; 0x1c
     220:	98 13       	cpse	r25, r24
     222:	06 c0       	rjmp	.+12     	; 0x230 <_ZN14HardwareSerial17_tx_udr_empty_irqEv+0x42>
     224:	02 88       	ldd	r0, Z+18	; 0x12
     226:	f3 89       	ldd	r31, Z+19	; 0x13
     228:	e0 2d       	mov	r30, r0
     22a:	80 81       	ld	r24, Z
     22c:	8f 7d       	andi	r24, 0xDF	; 223
     22e:	80 83       	st	Z, r24
     230:	08 95       	ret

00000232 <_ZN14HardwareSerial5writeEh>:
     232:	ef 92       	push	r14
     234:	ff 92       	push	r15
     236:	0f 93       	push	r16
     238:	1f 93       	push	r17
     23a:	cf 93       	push	r28
     23c:	df 93       	push	r29
     23e:	ec 01       	movw	r28, r24
     240:	81 e0       	ldi	r24, 0x01	; 1
     242:	88 8f       	std	Y+24, r24	; 0x18
     244:	9b 8d       	ldd	r25, Y+27	; 0x1b
     246:	8c 8d       	ldd	r24, Y+28	; 0x1c
     248:	98 13       	cpse	r25, r24
     24a:	05 c0       	rjmp	.+10     	; 0x256 <_ZN14HardwareSerial5writeEh+0x24>
     24c:	e8 89       	ldd	r30, Y+16	; 0x10
     24e:	f9 89       	ldd	r31, Y+17	; 0x11
     250:	80 81       	ld	r24, Z
     252:	85 fd       	sbrc	r24, 5
     254:	26 c0       	rjmp	.+76     	; 0x2a2 <_ZN14HardwareSerial5writeEh+0x70>
     256:	f6 2e       	mov	r15, r22
     258:	0b 8d       	ldd	r16, Y+27	; 0x1b
     25a:	10 e0       	ldi	r17, 0x00	; 0
     25c:	0f 5f       	subi	r16, 0xFF	; 255
     25e:	1f 4f       	sbci	r17, 0xFF	; 255
     260:	0f 73       	andi	r16, 0x3F	; 63
     262:	11 27       	eor	r17, r17
     264:	e0 2e       	mov	r14, r16
     266:	8c 8d       	ldd	r24, Y+28	; 0x1c
     268:	e8 12       	cpse	r14, r24
     26a:	0c c0       	rjmp	.+24     	; 0x284 <_ZN14HardwareSerial5writeEh+0x52>
     26c:	0f b6       	in	r0, 0x3f	; 63
     26e:	07 fc       	sbrc	r0, 7
     270:	fa cf       	rjmp	.-12     	; 0x266 <_ZN14HardwareSerial5writeEh+0x34>
     272:	e8 89       	ldd	r30, Y+16	; 0x10
     274:	f9 89       	ldd	r31, Y+17	; 0x11
     276:	80 81       	ld	r24, Z
     278:	85 ff       	sbrs	r24, 5
     27a:	f5 cf       	rjmp	.-22     	; 0x266 <_ZN14HardwareSerial5writeEh+0x34>
     27c:	ce 01       	movw	r24, r28
     27e:	0e 94 f7 00 	call	0x1ee	; 0x1ee <_ZN14HardwareSerial17_tx_udr_empty_irqEv>
     282:	f1 cf       	rjmp	.-30     	; 0x266 <_ZN14HardwareSerial5writeEh+0x34>
     284:	8b 8d       	ldd	r24, Y+27	; 0x1b
     286:	fe 01       	movw	r30, r28
     288:	e8 0f       	add	r30, r24
     28a:	f1 1d       	adc	r31, r1
     28c:	e3 5a       	subi	r30, 0xA3	; 163
     28e:	ff 4f       	sbci	r31, 0xFF	; 255
     290:	f0 82       	st	Z, r15
     292:	9f b7       	in	r25, 0x3f	; 63
     294:	f8 94       	cli
     296:	0b 8f       	std	Y+27, r16	; 0x1b
     298:	ea 89       	ldd	r30, Y+18	; 0x12
     29a:	fb 89       	ldd	r31, Y+19	; 0x13
     29c:	80 81       	ld	r24, Z
     29e:	80 62       	ori	r24, 0x20	; 32
     2a0:	0a c0       	rjmp	.+20     	; 0x2b6 <_ZN14HardwareSerial5writeEh+0x84>
     2a2:	9f b7       	in	r25, 0x3f	; 63
     2a4:	f8 94       	cli
     2a6:	ee 89       	ldd	r30, Y+22	; 0x16
     2a8:	ff 89       	ldd	r31, Y+23	; 0x17
     2aa:	60 83       	st	Z, r22
     2ac:	e8 89       	ldd	r30, Y+16	; 0x10
     2ae:	f9 89       	ldd	r31, Y+17	; 0x11
     2b0:	80 81       	ld	r24, Z
     2b2:	83 70       	andi	r24, 0x03	; 3
     2b4:	80 64       	ori	r24, 0x40	; 64
     2b6:	80 83       	st	Z, r24
     2b8:	9f bf       	out	0x3f, r25	; 63
     2ba:	81 e0       	ldi	r24, 0x01	; 1
     2bc:	90 e0       	ldi	r25, 0x00	; 0
     2be:	df 91       	pop	r29
     2c0:	cf 91       	pop	r28
     2c2:	1f 91       	pop	r17
     2c4:	0f 91       	pop	r16
     2c6:	ff 90       	pop	r15
     2c8:	ef 90       	pop	r14
     2ca:	08 95       	ret

000002cc <_ZN14HardwareSerial5flushEv>:
     2cc:	cf 93       	push	r28
     2ce:	df 93       	push	r29
     2d0:	ec 01       	movw	r28, r24
     2d2:	88 8d       	ldd	r24, Y+24	; 0x18
     2d4:	88 23       	and	r24, r24
     2d6:	c9 f0       	breq	.+50     	; 0x30a <_ZN14HardwareSerial5flushEv+0x3e>
     2d8:	ea 89       	ldd	r30, Y+18	; 0x12
     2da:	fb 89       	ldd	r31, Y+19	; 0x13
     2dc:	80 81       	ld	r24, Z
     2de:	85 fd       	sbrc	r24, 5
     2e0:	05 c0       	rjmp	.+10     	; 0x2ec <_ZN14HardwareSerial5flushEv+0x20>
     2e2:	a8 89       	ldd	r26, Y+16	; 0x10
     2e4:	b9 89       	ldd	r27, Y+17	; 0x11
     2e6:	8c 91       	ld	r24, X
     2e8:	86 fd       	sbrc	r24, 6
     2ea:	0f c0       	rjmp	.+30     	; 0x30a <_ZN14HardwareSerial5flushEv+0x3e>
     2ec:	0f b6       	in	r0, 0x3f	; 63
     2ee:	07 fc       	sbrc	r0, 7
     2f0:	f5 cf       	rjmp	.-22     	; 0x2dc <_ZN14HardwareSerial5flushEv+0x10>
     2f2:	80 81       	ld	r24, Z
     2f4:	85 ff       	sbrs	r24, 5
     2f6:	f2 cf       	rjmp	.-28     	; 0x2dc <_ZN14HardwareSerial5flushEv+0x10>
     2f8:	a8 89       	ldd	r26, Y+16	; 0x10
     2fa:	b9 89       	ldd	r27, Y+17	; 0x11
     2fc:	8c 91       	ld	r24, X
     2fe:	85 ff       	sbrs	r24, 5
     300:	ed cf       	rjmp	.-38     	; 0x2dc <_ZN14HardwareSerial5flushEv+0x10>
     302:	ce 01       	movw	r24, r28
     304:	0e 94 f7 00 	call	0x1ee	; 0x1ee <_ZN14HardwareSerial17_tx_udr_empty_irqEv>
     308:	e7 cf       	rjmp	.-50     	; 0x2d8 <_ZN14HardwareSerial5flushEv+0xc>
     30a:	df 91       	pop	r29
     30c:	cf 91       	pop	r28
     30e:	08 95       	ret

00000310 <_Z14serialEventRunv>:
     310:	80 e0       	ldi	r24, 0x00	; 0
     312:	90 e0       	ldi	r25, 0x00	; 0
     314:	89 2b       	or	r24, r25
     316:	29 f0       	breq	.+10     	; 0x322 <_Z14serialEventRunv+0x12>
     318:	0e 94 ed 00 	call	0x1da	; 0x1da <_Z17Serial0_availablev>
     31c:	81 11       	cpse	r24, r1
     31e:	0c 94 00 00 	jmp	0	; 0x0 <__vectors>
     322:	08 95       	ret

00000324 <_Z15iii1iii1iii1ii1v>:
     324:	20 91 00 01 	lds	r18, 0x0100	; 0x800100 <__DATA_REGION_ORIGIN__>
     328:	30 91 01 01 	lds	r19, 0x0101	; 0x800101 <__DATA_REGION_ORIGIN__+0x1>
     32c:	80 91 02 01 	lds	r24, 0x0102	; 0x800102 <i1ii1i1iii11ii>
     330:	90 91 03 01 	lds	r25, 0x0103	; 0x800103 <i1ii1i1iii11ii+0x1>
     334:	28 17       	cp	r18, r24
     336:	39 07       	cpc	r19, r25
     338:	54 f4       	brge	.+20     	; 0x34e <_Z15iii1iii1iii1ii1v+0x2a>
     33a:	80 91 0e 01 	lds	r24, 0x010E	; 0x80010e <ii1ii1i11ii1i1>
     33e:	90 91 0f 01 	lds	r25, 0x010F	; 0x80010f <ii1ii1i11ii1i1+0x1>
     342:	01 96       	adiw	r24, 0x01	; 1
     344:	90 93 0f 01 	sts	0x010F, r25	; 0x80010f <ii1ii1i11ii1i1+0x1>
     348:	80 93 0e 01 	sts	0x010E, r24	; 0x80010e <ii1ii1i11ii1i1>
     34c:	eb cf       	rjmp	.-42     	; 0x324 <_Z15iii1iii1iii1ii1v>
     34e:	80 91 00 01 	lds	r24, 0x0100	; 0x800100 <__DATA_REGION_ORIGIN__>
     352:	90 91 01 01 	lds	r25, 0x0101	; 0x800101 <__DATA_REGION_ORIGIN__+0x1>
     356:	08 95       	ret

00000358 <_Z6setMemc>:
     358:	1f 93       	push	r17
     35a:	cf 93       	push	r28
     35c:	df 93       	push	r29
     35e:	00 d0       	rcall	.+0      	; 0x360 <_Z6setMemc+0x8>
     360:	cd b7       	in	r28, 0x3d	; 61
     362:	de b7       	in	r29, 0x3e	; 62
     364:	18 2f       	mov	r17, r24
     366:	20 91 18 01 	lds	r18, 0x0118	; 0x800118 <i1i11i11ii1i1>
     36a:	30 91 19 01 	lds	r19, 0x0119	; 0x800119 <i1i11i11ii1i1+0x1>
     36e:	80 91 16 01 	lds	r24, 0x0116	; 0x800116 <i1ii1i11ii1i1>
     372:	90 91 17 01 	lds	r25, 0x0117	; 0x800117 <i1ii1i11ii1i1+0x1>
     376:	28 17       	cp	r18, r24
     378:	39 07       	cpc	r19, r25
     37a:	19 f4       	brne	.+6      	; 0x382 <_Z6setMemc+0x2a>
     37c:	0e 94 92 01 	call	0x324	; 0x324 <_Z15iii1iii1iii1ii1v>
     380:	08 c0       	rjmp	.+16     	; 0x392 <_Z6setMemc+0x3a>
     382:	80 91 16 01 	lds	r24, 0x0116	; 0x800116 <i1ii1i11ii1i1>
     386:	90 91 17 01 	lds	r25, 0x0117	; 0x800117 <i1ii1i11ii1i1+0x1>
     38a:	90 93 15 01 	sts	0x0115, r25	; 0x800115 <i1i1iiii11ii+0x1>
     38e:	80 93 14 01 	sts	0x0114, r24	; 0x800114 <i1i1iiii11ii>
     392:	20 91 12 01 	lds	r18, 0x0112	; 0x800112 <iiii1i1iii1ii>
     396:	30 91 13 01 	lds	r19, 0x0113	; 0x800113 <iiii1i1iii1ii+0x1>
     39a:	80 91 10 01 	lds	r24, 0x0110	; 0x800110 <i1ii1i1iii1ii>
     39e:	90 91 11 01 	lds	r25, 0x0111	; 0x800111 <i1ii1i1iii1ii+0x1>
     3a2:	28 17       	cp	r18, r24
     3a4:	39 07       	cpc	r19, r25
     3a6:	49 f4       	brne	.+18     	; 0x3ba <_Z6setMemc+0x62>
     3a8:	80 91 18 01 	lds	r24, 0x0118	; 0x800118 <i1i11i11ii1i1>
     3ac:	90 91 19 01 	lds	r25, 0x0119	; 0x800119 <i1i11i11ii1i1+0x1>
     3b0:	90 93 0f 01 	sts	0x010F, r25	; 0x80010f <ii1ii1i11ii1i1+0x1>
     3b4:	80 93 0e 01 	sts	0x010E, r24	; 0x80010e <ii1ii1i11ii1i1>
     3b8:	0e c0       	rjmp	.+28     	; 0x3d6 <_Z6setMemc+0x7e>
     3ba:	80 91 12 01 	lds	r24, 0x0112	; 0x800112 <iiii1i1iii1ii>
     3be:	90 91 13 01 	lds	r25, 0x0113	; 0x800113 <iiii1i1iii1ii+0x1>
     3c2:	60 91 16 01 	lds	r22, 0x0116	; 0x800116 <i1ii1i11ii1i1>
     3c6:	70 91 17 01 	lds	r23, 0x0117	; 0x800117 <i1ii1i11ii1i1+0x1>
     3ca:	0e 94 a3 10 	call	0x2146	; 0x2146 <__divmodhi4>
     3ce:	90 93 0d 01 	sts	0x010D, r25	; 0x80010d <ii11i11ii1i1+0x1>
     3d2:	80 93 0c 01 	sts	0x010C, r24	; 0x80010c <ii11i11ii1i1>
     3d6:	20 91 16 01 	lds	r18, 0x0116	; 0x800116 <i1ii1i11ii1i1>
     3da:	30 91 17 01 	lds	r19, 0x0117	; 0x800117 <i1ii1i11ii1i1+0x1>
     3de:	80 91 16 01 	lds	r24, 0x0116	; 0x800116 <i1ii1i11ii1i1>
     3e2:	90 91 17 01 	lds	r25, 0x0117	; 0x800117 <i1ii1i11ii1i1+0x1>
     3e6:	28 17       	cp	r18, r24
     3e8:	39 07       	cpc	r19, r25
     3ea:	19 f0       	breq	.+6      	; 0x3f2 <_Z6setMemc+0x9a>
     3ec:	0e 94 92 01 	call	0x324	; 0x324 <_Z15iii1iii1iii1ii1v>
     3f0:	08 c0       	rjmp	.+16     	; 0x402 <__EEPROM_REGION_LENGTH__+0x2>
     3f2:	80 91 0a 01 	lds	r24, 0x010A	; 0x80010a <i1i1ii1ii11ii>
     3f6:	90 91 0b 01 	lds	r25, 0x010B	; 0x80010b <i1i1ii1ii11ii+0x1>
     3fa:	90 93 0f 01 	sts	0x010F, r25	; 0x80010f <ii1ii1i11ii1i1+0x1>
     3fe:	80 93 0e 01 	sts	0x010E, r24	; 0x80010e <ii1ii1i11ii1i1>
     402:	80 91 0a 01 	lds	r24, 0x010A	; 0x80010a <i1i1ii1ii11ii>
     406:	90 91 0b 01 	lds	r25, 0x010B	; 0x80010b <i1i1ii1ii11ii+0x1>
     40a:	60 91 18 01 	lds	r22, 0x0118	; 0x800118 <i1i11i11ii1i1>
     40e:	70 91 19 01 	lds	r23, 0x0119	; 0x800119 <i1i11i11ii1i1+0x1>
     412:	0e 94 a3 10 	call	0x2146	; 0x2146 <__divmodhi4>
     416:	90 93 0d 01 	sts	0x010D, r25	; 0x80010d <ii11i11ii1i1+0x1>
     41a:	80 93 0c 01 	sts	0x010C, r24	; 0x80010c <ii11i11ii1i1>
     41e:	20 91 08 01 	lds	r18, 0x0108	; 0x800108 <i1ii1iii1iii>
     422:	30 91 09 01 	lds	r19, 0x0109	; 0x800109 <i1ii1iii1iii+0x1>
     426:	80 91 08 01 	lds	r24, 0x0108	; 0x800108 <i1ii1iii1iii>
     42a:	90 91 09 01 	lds	r25, 0x0109	; 0x800109 <i1ii1iii1iii+0x1>
     42e:	28 17       	cp	r18, r24
     430:	39 07       	cpc	r19, r25
     432:	19 f0       	breq	.+6      	; 0x43a <__EEPROM_REGION_LENGTH__+0x3a>
     434:	0e 94 92 01 	call	0x324	; 0x324 <_Z15iii1iii1iii1ii1v>
     438:	08 c0       	rjmp	.+16     	; 0x44a <__EEPROM_REGION_LENGTH__+0x4a>
     43a:	80 91 16 01 	lds	r24, 0x0116	; 0x800116 <i1ii1i11ii1i1>
     43e:	90 91 17 01 	lds	r25, 0x0117	; 0x800117 <i1ii1i11ii1i1+0x1>
     442:	90 93 15 01 	sts	0x0115, r25	; 0x800115 <i1i1iiii11ii+0x1>
     446:	80 93 14 01 	sts	0x0114, r24	; 0x800114 <i1i1iiii11ii>
     44a:	1a 82       	std	Y+2, r1	; 0x02
     44c:	19 82       	std	Y+1, r1	; 0x01
     44e:	29 81       	ldd	r18, Y+1	; 0x01
     450:	3a 81       	ldd	r19, Y+2	; 0x02
     452:	80 91 00 01 	lds	r24, 0x0100	; 0x800100 <__DATA_REGION_ORIGIN__>
     456:	90 91 01 01 	lds	r25, 0x0101	; 0x800101 <__DATA_REGION_ORIGIN__+0x1>
     45a:	28 17       	cp	r18, r24
     45c:	39 07       	cpc	r19, r25
     45e:	a4 f4       	brge	.+40     	; 0x488 <__EEPROM_REGION_LENGTH__+0x88>
     460:	89 81       	ldd	r24, Y+1	; 0x01
     462:	9a 81       	ldd	r25, Y+2	; 0x02
     464:	60 91 00 01 	lds	r22, 0x0100	; 0x800100 <__DATA_REGION_ORIGIN__>
     468:	70 91 01 01 	lds	r23, 0x0101	; 0x800101 <__DATA_REGION_ORIGIN__+0x1>
     46c:	0e 94 a3 10 	call	0x2146	; 0x2146 <__divmodhi4>
     470:	fc 01       	movw	r30, r24
     472:	ee 0f       	add	r30, r30
     474:	ff 1f       	adc	r31, r31
     476:	f8 5f       	subi	r31, 0xF8	; 248
     478:	11 82       	std	Z+1, r1	; 0x01
     47a:	10 82       	st	Z, r1
     47c:	89 81       	ldd	r24, Y+1	; 0x01
     47e:	9a 81       	ldd	r25, Y+2	; 0x02
     480:	01 96       	adiw	r24, 0x01	; 1
     482:	9a 83       	std	Y+2, r25	; 0x02
     484:	89 83       	std	Y+1, r24	; 0x01
     486:	e3 cf       	rjmp	.-58     	; 0x44e <__EEPROM_REGION_LENGTH__+0x4e>
     488:	21 2f       	mov	r18, r17
     48a:	11 0f       	add	r17, r17
     48c:	33 0b       	sbc	r19, r19
     48e:	60 91 00 01 	lds	r22, 0x0100	; 0x800100 <__DATA_REGION_ORIGIN__>
     492:	70 91 01 01 	lds	r23, 0x0101	; 0x800101 <__DATA_REGION_ORIGIN__+0x1>
     496:	c9 01       	movw	r24, r18
     498:	0e 94 a3 10 	call	0x2146	; 0x2146 <__divmodhi4>
     49c:	fc 01       	movw	r30, r24
     49e:	ee 0f       	add	r30, r30
     4a0:	ff 1f       	adc	r31, r31
     4a2:	f8 5f       	subi	r31, 0xF8	; 248
     4a4:	31 83       	std	Z+1, r19	; 0x01
     4a6:	20 83       	st	Z, r18
     4a8:	20 91 18 01 	lds	r18, 0x0118	; 0x800118 <i1i11i11ii1i1>
     4ac:	30 91 19 01 	lds	r19, 0x0119	; 0x800119 <i1i11i11ii1i1+0x1>
     4b0:	80 91 16 01 	lds	r24, 0x0116	; 0x800116 <i1ii1i11ii1i1>
     4b4:	90 91 17 01 	lds	r25, 0x0117	; 0x800117 <i1ii1i11ii1i1+0x1>
     4b8:	28 17       	cp	r18, r24
     4ba:	39 07       	cpc	r19, r25
     4bc:	19 f4       	brne	.+6      	; 0x4c4 <__EEPROM_REGION_LENGTH__+0xc4>
     4be:	0e 94 92 01 	call	0x324	; 0x324 <_Z15iii1iii1iii1ii1v>
     4c2:	08 c0       	rjmp	.+16     	; 0x4d4 <__EEPROM_REGION_LENGTH__+0xd4>
     4c4:	80 91 16 01 	lds	r24, 0x0116	; 0x800116 <i1ii1i11ii1i1>
     4c8:	90 91 17 01 	lds	r25, 0x0117	; 0x800117 <i1ii1i11ii1i1+0x1>
     4cc:	90 93 15 01 	sts	0x0115, r25	; 0x800115 <i1i1iiii11ii+0x1>
     4d0:	80 93 14 01 	sts	0x0114, r24	; 0x800114 <i1i1iiii11ii>
     4d4:	20 91 12 01 	lds	r18, 0x0112	; 0x800112 <iiii1i1iii1ii>
     4d8:	30 91 13 01 	lds	r19, 0x0113	; 0x800113 <iiii1i1iii1ii+0x1>
     4dc:	80 91 10 01 	lds	r24, 0x0110	; 0x800110 <i1ii1i1iii1ii>
     4e0:	90 91 11 01 	lds	r25, 0x0111	; 0x800111 <i1ii1i1iii1ii+0x1>
     4e4:	28 17       	cp	r18, r24
     4e6:	39 07       	cpc	r19, r25
     4e8:	49 f4       	brne	.+18     	; 0x4fc <__EEPROM_REGION_LENGTH__+0xfc>
     4ea:	80 91 18 01 	lds	r24, 0x0118	; 0x800118 <i1i11i11ii1i1>
     4ee:	90 91 19 01 	lds	r25, 0x0119	; 0x800119 <i1i11i11ii1i1+0x1>
     4f2:	90 93 0f 01 	sts	0x010F, r25	; 0x80010f <ii1ii1i11ii1i1+0x1>
     4f6:	80 93 0e 01 	sts	0x010E, r24	; 0x80010e <ii1ii1i11ii1i1>
     4fa:	0e c0       	rjmp	.+28     	; 0x518 <__EEPROM_REGION_LENGTH__+0x118>
     4fc:	80 91 12 01 	lds	r24, 0x0112	; 0x800112 <iiii1i1iii1ii>
     500:	90 91 13 01 	lds	r25, 0x0113	; 0x800113 <iiii1i1iii1ii+0x1>
     504:	60 91 16 01 	lds	r22, 0x0116	; 0x800116 <i1ii1i11ii1i1>
     508:	70 91 17 01 	lds	r23, 0x0117	; 0x800117 <i1ii1i11ii1i1+0x1>
     50c:	0e 94 a3 10 	call	0x2146	; 0x2146 <__divmodhi4>
     510:	90 93 0d 01 	sts	0x010D, r25	; 0x80010d <ii11i11ii1i1+0x1>
     514:	80 93 0c 01 	sts	0x010C, r24	; 0x80010c <ii11i11ii1i1>
     518:	20 91 16 01 	lds	r18, 0x0116	; 0x800116 <i1ii1i11ii1i1>
     51c:	30 91 17 01 	lds	r19, 0x0117	; 0x800117 <i1ii1i11ii1i1+0x1>
     520:	80 91 16 01 	lds	r24, 0x0116	; 0x800116 <i1ii1i11ii1i1>
     524:	90 91 17 01 	lds	r25, 0x0117	; 0x800117 <i1ii1i11ii1i1+0x1>
     528:	28 17       	cp	r18, r24
     52a:	39 07       	cpc	r19, r25
     52c:	19 f0       	breq	.+6      	; 0x534 <__EEPROM_REGION_LENGTH__+0x134>
     52e:	0e 94 92 01 	call	0x324	; 0x324 <_Z15iii1iii1iii1ii1v>
     532:	08 c0       	rjmp	.+16     	; 0x544 <__EEPROM_REGION_LENGTH__+0x144>
     534:	80 91 0a 01 	lds	r24, 0x010A	; 0x80010a <i1i1ii1ii11ii>
     538:	90 91 0b 01 	lds	r25, 0x010B	; 0x80010b <i1i1ii1ii11ii+0x1>
     53c:	90 93 0f 01 	sts	0x010F, r25	; 0x80010f <ii1ii1i11ii1i1+0x1>
     540:	80 93 0e 01 	sts	0x010E, r24	; 0x80010e <ii1ii1i11ii1i1>
     544:	80 91 0a 01 	lds	r24, 0x010A	; 0x80010a <i1i1ii1ii11ii>
     548:	90 91 0b 01 	lds	r25, 0x010B	; 0x80010b <i1i1ii1ii11ii+0x1>
     54c:	60 91 18 01 	lds	r22, 0x0118	; 0x800118 <i1i11i11ii1i1>
     550:	70 91 19 01 	lds	r23, 0x0119	; 0x800119 <i1i11i11ii1i1+0x1>
     554:	0e 94 a3 10 	call	0x2146	; 0x2146 <__divmodhi4>
     558:	90 93 0d 01 	sts	0x010D, r25	; 0x80010d <ii11i11ii1i1+0x1>
     55c:	80 93 0c 01 	sts	0x010C, r24	; 0x80010c <ii11i11ii1i1>
     560:	20 91 08 01 	lds	r18, 0x0108	; 0x800108 <i1ii1iii1iii>
     564:	30 91 09 01 	lds	r19, 0x0109	; 0x800109 <i1ii1iii1iii+0x1>
     568:	80 91 08 01 	lds	r24, 0x0108	; 0x800108 <i1ii1iii1iii>
     56c:	90 91 09 01 	lds	r25, 0x0109	; 0x800109 <i1ii1iii1iii+0x1>
     570:	28 17       	cp	r18, r24
     572:	39 07       	cpc	r19, r25
     574:	19 f0       	breq	.+6      	; 0x57c <__EEPROM_REGION_LENGTH__+0x17c>
     576:	0e 94 92 01 	call	0x324	; 0x324 <_Z15iii1iii1iii1ii1v>
     57a:	08 c0       	rjmp	.+16     	; 0x58c <__EEPROM_REGION_LENGTH__+0x18c>
     57c:	80 91 16 01 	lds	r24, 0x0116	; 0x800116 <i1ii1i11ii1i1>
     580:	90 91 17 01 	lds	r25, 0x0117	; 0x800117 <i1ii1i11ii1i1+0x1>
     584:	90 93 15 01 	sts	0x0115, r25	; 0x800115 <i1i1iiii11ii+0x1>
     588:	80 93 14 01 	sts	0x0114, r24	; 0x800114 <i1i1iiii11ii>
     58c:	20 91 12 01 	lds	r18, 0x0112	; 0x800112 <iiii1i1iii1ii>
     590:	30 91 13 01 	lds	r19, 0x0113	; 0x800113 <iiii1i1iii1ii+0x1>
     594:	80 91 12 01 	lds	r24, 0x0112	; 0x800112 <iiii1i1iii1ii>
     598:	90 91 13 01 	lds	r25, 0x0113	; 0x800113 <iiii1i1iii1ii+0x1>
     59c:	28 17       	cp	r18, r24
     59e:	39 07       	cpc	r19, r25
     5a0:	49 f0       	breq	.+18     	; 0x5b4 <__EEPROM_REGION_LENGTH__+0x1b4>
     5a2:	80 91 18 01 	lds	r24, 0x0118	; 0x800118 <i1i11i11ii1i1>
     5a6:	90 91 19 01 	lds	r25, 0x0119	; 0x800119 <i1i11i11ii1i1+0x1>
     5aa:	90 93 0d 01 	sts	0x010D, r25	; 0x80010d <ii11i11ii1i1+0x1>
     5ae:	80 93 0c 01 	sts	0x010C, r24	; 0x80010c <ii11i11ii1i1>
     5b2:	08 c0       	rjmp	.+16     	; 0x5c4 <__EEPROM_REGION_LENGTH__+0x1c4>
     5b4:	80 91 16 01 	lds	r24, 0x0116	; 0x800116 <i1ii1i11ii1i1>
     5b8:	90 91 17 01 	lds	r25, 0x0117	; 0x800117 <i1ii1i11ii1i1+0x1>
     5bc:	90 93 15 01 	sts	0x0115, r25	; 0x800115 <i1i1iiii11ii+0x1>
     5c0:	80 93 14 01 	sts	0x0114, r24	; 0x800114 <i1i1iiii11ii>
     5c4:	20 91 0a 01 	lds	r18, 0x010A	; 0x80010a <i1i1ii1ii11ii>
     5c8:	30 91 0b 01 	lds	r19, 0x010B	; 0x80010b <i1i1ii1ii11ii+0x1>
     5cc:	80 91 0a 01 	lds	r24, 0x010A	; 0x80010a <i1i1ii1ii11ii>
     5d0:	90 91 0b 01 	lds	r25, 0x010B	; 0x80010b <i1i1ii1ii11ii+0x1>
     5d4:	28 17       	cp	r18, r24
     5d6:	39 07       	cpc	r19, r25
     5d8:	19 f0       	breq	.+6      	; 0x5e0 <__EEPROM_REGION_LENGTH__+0x1e0>
     5da:	0e 94 92 01 	call	0x324	; 0x324 <_Z15iii1iii1iii1ii1v>
     5de:	0e c0       	rjmp	.+28     	; 0x5fc <__EEPROM_REGION_LENGTH__+0x1fc>
     5e0:	80 91 12 01 	lds	r24, 0x0112	; 0x800112 <iiii1i1iii1ii>
     5e4:	90 91 13 01 	lds	r25, 0x0113	; 0x800113 <iiii1i1iii1ii+0x1>
     5e8:	60 91 16 01 	lds	r22, 0x0116	; 0x800116 <i1ii1i11ii1i1>
     5ec:	70 91 17 01 	lds	r23, 0x0117	; 0x800117 <i1ii1i11ii1i1+0x1>
     5f0:	0e 94 a3 10 	call	0x2146	; 0x2146 <__divmodhi4>
     5f4:	90 93 0d 01 	sts	0x010D, r25	; 0x80010d <ii11i11ii1i1+0x1>
     5f8:	80 93 0c 01 	sts	0x010C, r24	; 0x80010c <ii11i11ii1i1>
     5fc:	80 91 09 00 	lds	r24, 0x0009	; 0x800009 <__TEXT_REGION_LENGTH__+0x7f8009>
     600:	90 91 0a 00 	lds	r25, 0x000A	; 0x80000a <__TEXT_REGION_LENGTH__+0x7f800a>
     604:	90 93 15 01 	sts	0x0115, r25	; 0x800115 <i1i1iiii11ii+0x1>
     608:	80 93 14 01 	sts	0x0114, r24	; 0x800114 <i1i1iiii11ii>
     60c:	20 91 10 01 	lds	r18, 0x0110	; 0x800110 <i1ii1i1iii1ii>
     610:	30 91 11 01 	lds	r19, 0x0111	; 0x800111 <i1ii1i1iii1ii+0x1>
     614:	80 91 10 01 	lds	r24, 0x0110	; 0x800110 <i1ii1i1iii1ii>
     618:	90 91 11 01 	lds	r25, 0x0111	; 0x800111 <i1ii1i1iii1ii+0x1>
     61c:	28 17       	cp	r18, r24
     61e:	39 07       	cpc	r19, r25
     620:	19 f0       	breq	.+6      	; 0x628 <__EEPROM_REGION_LENGTH__+0x228>
     622:	0e 94 92 01 	call	0x324	; 0x324 <_Z15iii1iii1iii1ii1v>
     626:	08 c0       	rjmp	.+16     	; 0x638 <__EEPROM_REGION_LENGTH__+0x238>
     628:	80 91 0a 01 	lds	r24, 0x010A	; 0x80010a <i1i1ii1ii11ii>
     62c:	90 91 0b 01 	lds	r25, 0x010B	; 0x80010b <i1i1ii1ii11ii+0x1>
     630:	90 93 0f 01 	sts	0x010F, r25	; 0x80010f <ii1ii1i11ii1i1+0x1>
     634:	80 93 0e 01 	sts	0x010E, r24	; 0x80010e <ii1ii1i11ii1i1>
     638:	20 91 16 01 	lds	r18, 0x0116	; 0x800116 <i1ii1i11ii1i1>
     63c:	30 91 17 01 	lds	r19, 0x0117	; 0x800117 <i1ii1i11ii1i1+0x1>
     640:	80 91 18 01 	lds	r24, 0x0118	; 0x800118 <i1i11i11ii1i1>
     644:	90 91 19 01 	lds	r25, 0x0119	; 0x800119 <i1i11i11ii1i1+0x1>
     648:	28 17       	cp	r18, r24
     64a:	39 07       	cpc	r19, r25
     64c:	49 f4       	brne	.+18     	; 0x660 <__EEPROM_REGION_LENGTH__+0x260>
     64e:	80 91 16 01 	lds	r24, 0x0116	; 0x800116 <i1ii1i11ii1i1>
     652:	90 91 17 01 	lds	r25, 0x0117	; 0x800117 <i1ii1i11ii1i1+0x1>
     656:	90 93 15 01 	sts	0x0115, r25	; 0x800115 <i1i1iiii11ii+0x1>
     65a:	80 93 14 01 	sts	0x0114, r24	; 0x800114 <i1i1iiii11ii>
     65e:	08 c0       	rjmp	.+16     	; 0x670 <__EEPROM_REGION_LENGTH__+0x270>
     660:	80 91 0a 01 	lds	r24, 0x010A	; 0x80010a <i1i1ii1ii11ii>
     664:	90 91 0b 01 	lds	r25, 0x010B	; 0x80010b <i1i1ii1ii11ii+0x1>
     668:	90 93 0f 01 	sts	0x010F, r25	; 0x80010f <ii1ii1i11ii1i1+0x1>
     66c:	80 93 0e 01 	sts	0x010E, r24	; 0x80010e <ii1ii1i11ii1i1>
     670:	0f 90       	pop	r0
     672:	0f 90       	pop	r0
     674:	df 91       	pop	r29
     676:	cf 91       	pop	r28
     678:	1f 91       	pop	r17
     67a:	08 95       	ret

0000067c <_ZN5Print7printlnEPKc.constprop.6>:
     67c:	cf 93       	push	r28
     67e:	df 93       	push	r29
     680:	00 97       	sbiw	r24, 0x00	; 0
     682:	79 f0       	breq	.+30     	; 0x6a2 <_ZN5Print7printlnEPKc.constprop.6+0x26>
     684:	fc 01       	movw	r30, r24
     686:	01 90       	ld	r0, Z+
     688:	00 20       	and	r0, r0
     68a:	e9 f7       	brne	.-6      	; 0x686 <_ZN5Print7printlnEPKc.constprop.6+0xa>
     68c:	31 97       	sbiw	r30, 0x01	; 1
     68e:	af 01       	movw	r20, r30
     690:	48 1b       	sub	r20, r24
     692:	59 0b       	sbc	r21, r25
     694:	bc 01       	movw	r22, r24
     696:	87 e5       	ldi	r24, 0x57	; 87
     698:	91 e0       	ldi	r25, 0x01	; 1
     69a:	0e 94 82 00 	call	0x104	; 0x104 <_ZN5Print5writeEPKhj>
     69e:	ec 01       	movw	r28, r24
     6a0:	02 c0       	rjmp	.+4      	; 0x6a6 <_ZN5Print7printlnEPKc.constprop.6+0x2a>
     6a2:	c0 e0       	ldi	r28, 0x00	; 0
     6a4:	d0 e0       	ldi	r29, 0x00	; 0
     6a6:	42 e0       	ldi	r20, 0x02	; 2
     6a8:	50 e0       	ldi	r21, 0x00	; 0
     6aa:	6c e2       	ldi	r22, 0x2C	; 44
     6ac:	71 e0       	ldi	r23, 0x01	; 1
     6ae:	87 e5       	ldi	r24, 0x57	; 87
     6b0:	91 e0       	ldi	r25, 0x01	; 1
     6b2:	0e 94 82 00 	call	0x104	; 0x104 <_ZN5Print5writeEPKhj>
     6b6:	8c 0f       	add	r24, r28
     6b8:	9d 1f       	adc	r25, r29
     6ba:	df 91       	pop	r29
     6bc:	cf 91       	pop	r28
     6be:	08 95       	ret

000006c0 <__cxa_pure_virtual>:
     6c0:	0e 94 d1 10 	call	0x21a2	; 0x21a2 <abort>

000006c4 <__vector_16>:
     6c4:	1f 92       	push	r1
     6c6:	0f 92       	push	r0
     6c8:	0f b6       	in	r0, 0x3f	; 63
     6ca:	0f 92       	push	r0
     6cc:	11 24       	eor	r1, r1
     6ce:	2f 93       	push	r18
     6d0:	3f 93       	push	r19
     6d2:	8f 93       	push	r24
     6d4:	9f 93       	push	r25
     6d6:	af 93       	push	r26
     6d8:	bf 93       	push	r27
     6da:	80 91 53 01 	lds	r24, 0x0153	; 0x800153 <timer0_millis>
     6de:	90 91 54 01 	lds	r25, 0x0154	; 0x800154 <timer0_millis+0x1>
     6e2:	a0 91 55 01 	lds	r26, 0x0155	; 0x800155 <timer0_millis+0x2>
     6e6:	b0 91 56 01 	lds	r27, 0x0156	; 0x800156 <timer0_millis+0x3>
     6ea:	30 91 52 01 	lds	r19, 0x0152	; 0x800152 <timer0_fract>
     6ee:	23 e0       	ldi	r18, 0x03	; 3
     6f0:	23 0f       	add	r18, r19
     6f2:	2d 37       	cpi	r18, 0x7D	; 125
     6f4:	20 f4       	brcc	.+8      	; 0x6fe <__vector_16+0x3a>
     6f6:	01 96       	adiw	r24, 0x01	; 1
     6f8:	a1 1d       	adc	r26, r1
     6fa:	b1 1d       	adc	r27, r1
     6fc:	05 c0       	rjmp	.+10     	; 0x708 <__vector_16+0x44>
     6fe:	26 e8       	ldi	r18, 0x86	; 134
     700:	23 0f       	add	r18, r19
     702:	02 96       	adiw	r24, 0x02	; 2
     704:	a1 1d       	adc	r26, r1
     706:	b1 1d       	adc	r27, r1
     708:	20 93 52 01 	sts	0x0152, r18	; 0x800152 <timer0_fract>
     70c:	80 93 53 01 	sts	0x0153, r24	; 0x800153 <timer0_millis>
     710:	90 93 54 01 	sts	0x0154, r25	; 0x800154 <timer0_millis+0x1>
     714:	a0 93 55 01 	sts	0x0155, r26	; 0x800155 <timer0_millis+0x2>
     718:	b0 93 56 01 	sts	0x0156, r27	; 0x800156 <timer0_millis+0x3>
     71c:	80 91 4e 01 	lds	r24, 0x014E	; 0x80014e <__data_end>
     720:	90 91 4f 01 	lds	r25, 0x014F	; 0x80014f <__data_end+0x1>
     724:	a0 91 50 01 	lds	r26, 0x0150	; 0x800150 <__data_end+0x2>
     728:	b0 91 51 01 	lds	r27, 0x0151	; 0x800151 <__data_end+0x3>
     72c:	01 96       	adiw	r24, 0x01	; 1
     72e:	a1 1d       	adc	r26, r1
     730:	b1 1d       	adc	r27, r1
     732:	80 93 4e 01 	sts	0x014E, r24	; 0x80014e <__data_end>
     736:	90 93 4f 01 	sts	0x014F, r25	; 0x80014f <__data_end+0x1>
     73a:	a0 93 50 01 	sts	0x0150, r26	; 0x800150 <__data_end+0x2>
     73e:	b0 93 51 01 	sts	0x0151, r27	; 0x800151 <__data_end+0x3>
     742:	bf 91       	pop	r27
     744:	af 91       	pop	r26
     746:	9f 91       	pop	r25
     748:	8f 91       	pop	r24
     74a:	3f 91       	pop	r19
     74c:	2f 91       	pop	r18
     74e:	0f 90       	pop	r0
     750:	0f be       	out	0x3f, r0	; 63
     752:	0f 90       	pop	r0
     754:	1f 90       	pop	r1
     756:	18 95       	reti

00000758 <__vector_19>:
     758:	1f 92       	push	r1
     75a:	0f 92       	push	r0
     75c:	0f b6       	in	r0, 0x3f	; 63
     75e:	0f 92       	push	r0
     760:	11 24       	eor	r1, r1
     762:	2f 93       	push	r18
     764:	3f 93       	push	r19
     766:	4f 93       	push	r20
     768:	5f 93       	push	r21
     76a:	6f 93       	push	r22
     76c:	7f 93       	push	r23
     76e:	8f 93       	push	r24
     770:	9f 93       	push	r25
     772:	af 93       	push	r26
     774:	bf 93       	push	r27
     776:	ef 93       	push	r30
     778:	ff 93       	push	r31
     77a:	87 e5       	ldi	r24, 0x57	; 87
     77c:	91 e0       	ldi	r25, 0x01	; 1
     77e:	0e 94 f7 00 	call	0x1ee	; 0x1ee <_ZN14HardwareSerial17_tx_udr_empty_irqEv>
     782:	ff 91       	pop	r31
     784:	ef 91       	pop	r30
     786:	bf 91       	pop	r27
     788:	af 91       	pop	r26
     78a:	9f 91       	pop	r25
     78c:	8f 91       	pop	r24
     78e:	7f 91       	pop	r23
     790:	6f 91       	pop	r22
     792:	5f 91       	pop	r21
     794:	4f 91       	pop	r20
     796:	3f 91       	pop	r19
     798:	2f 91       	pop	r18
     79a:	0f 90       	pop	r0
     79c:	0f be       	out	0x3f, r0	; 63
     79e:	0f 90       	pop	r0
     7a0:	1f 90       	pop	r1
     7a2:	18 95       	reti

000007a4 <__vector_18>:
     7a4:	1f 92       	push	r1
     7a6:	0f 92       	push	r0
     7a8:	0f b6       	in	r0, 0x3f	; 63
     7aa:	0f 92       	push	r0
     7ac:	11 24       	eor	r1, r1
     7ae:	2f 93       	push	r18
     7b0:	8f 93       	push	r24
     7b2:	9f 93       	push	r25
     7b4:	ef 93       	push	r30
     7b6:	ff 93       	push	r31
     7b8:	e0 91 67 01 	lds	r30, 0x0167	; 0x800167 <Serial+0x10>
     7bc:	f0 91 68 01 	lds	r31, 0x0168	; 0x800168 <Serial+0x11>
     7c0:	80 81       	ld	r24, Z
     7c2:	e0 91 6d 01 	lds	r30, 0x016D	; 0x80016d <Serial+0x16>
     7c6:	f0 91 6e 01 	lds	r31, 0x016E	; 0x80016e <Serial+0x17>
     7ca:	82 fd       	sbrc	r24, 2
     7cc:	12 c0       	rjmp	.+36     	; 0x7f2 <__vector_18+0x4e>
     7ce:	90 81       	ld	r25, Z
     7d0:	80 91 70 01 	lds	r24, 0x0170	; 0x800170 <Serial+0x19>
     7d4:	8f 5f       	subi	r24, 0xFF	; 255
     7d6:	8f 73       	andi	r24, 0x3F	; 63
     7d8:	20 91 71 01 	lds	r18, 0x0171	; 0x800171 <Serial+0x1a>
     7dc:	82 17       	cp	r24, r18
     7de:	51 f0       	breq	.+20     	; 0x7f4 <__vector_18+0x50>
     7e0:	e0 91 70 01 	lds	r30, 0x0170	; 0x800170 <Serial+0x19>
     7e4:	f0 e0       	ldi	r31, 0x00	; 0
     7e6:	e9 5a       	subi	r30, 0xA9	; 169
     7e8:	fe 4f       	sbci	r31, 0xFE	; 254
     7ea:	95 8f       	std	Z+29, r25	; 0x1d
     7ec:	80 93 70 01 	sts	0x0170, r24	; 0x800170 <Serial+0x19>
     7f0:	01 c0       	rjmp	.+2      	; 0x7f4 <__vector_18+0x50>
     7f2:	80 81       	ld	r24, Z
     7f4:	ff 91       	pop	r31
     7f6:	ef 91       	pop	r30
     7f8:	9f 91       	pop	r25
     7fa:	8f 91       	pop	r24
     7fc:	2f 91       	pop	r18
     7fe:	0f 90       	pop	r0
     800:	0f be       	out	0x3f, r0	; 63
     802:	0f 90       	pop	r0
     804:	1f 90       	pop	r1
     806:	18 95       	reti

00000808 <main>:
     808:	cf 93       	push	r28
     80a:	df 93       	push	r29
     80c:	00 d0       	rcall	.+0      	; 0x80e <main+0x6>
     80e:	00 d0       	rcall	.+0      	; 0x810 <main+0x8>
     810:	cd b7       	in	r28, 0x3d	; 61
     812:	de b7       	in	r29, 0x3e	; 62
     814:	78 94       	sei
     816:	84 b5       	in	r24, 0x24	; 36
     818:	82 60       	ori	r24, 0x02	; 2
     81a:	84 bd       	out	0x24, r24	; 36
     81c:	84 b5       	in	r24, 0x24	; 36
     81e:	81 60       	ori	r24, 0x01	; 1
     820:	84 bd       	out	0x24, r24	; 36
     822:	85 b5       	in	r24, 0x25	; 37
     824:	82 60       	ori	r24, 0x02	; 2
     826:	85 bd       	out	0x25, r24	; 37
     828:	85 b5       	in	r24, 0x25	; 37
     82a:	81 60       	ori	r24, 0x01	; 1
     82c:	85 bd       	out	0x25, r24	; 37
     82e:	80 91 6e 00 	lds	r24, 0x006E	; 0x80006e <__TEXT_REGION_LENGTH__+0x7f806e>
     832:	81 60       	ori	r24, 0x01	; 1
     834:	80 93 6e 00 	sts	0x006E, r24	; 0x80006e <__TEXT_REGION_LENGTH__+0x7f806e>
     838:	10 92 81 00 	sts	0x0081, r1	; 0x800081 <__TEXT_REGION_LENGTH__+0x7f8081>
     83c:	80 91 81 00 	lds	r24, 0x0081	; 0x800081 <__TEXT_REGION_LENGTH__+0x7f8081>
     840:	82 60       	ori	r24, 0x02	; 2
     842:	80 93 81 00 	sts	0x0081, r24	; 0x800081 <__TEXT_REGION_LENGTH__+0x7f8081>
     846:	80 91 81 00 	lds	r24, 0x0081	; 0x800081 <__TEXT_REGION_LENGTH__+0x7f8081>
     84a:	81 60       	ori	r24, 0x01	; 1
     84c:	80 93 81 00 	sts	0x0081, r24	; 0x800081 <__TEXT_REGION_LENGTH__+0x7f8081>
     850:	80 91 80 00 	lds	r24, 0x0080	; 0x800080 <__TEXT_REGION_LENGTH__+0x7f8080>
     854:	81 60       	ori	r24, 0x01	; 1
     856:	80 93 80 00 	sts	0x0080, r24	; 0x800080 <__TEXT_REGION_LENGTH__+0x7f8080>
     85a:	80 91 b1 00 	lds	r24, 0x00B1	; 0x8000b1 <__TEXT_REGION_LENGTH__+0x7f80b1>
     85e:	84 60       	ori	r24, 0x04	; 4
     860:	80 93 b1 00 	sts	0x00B1, r24	; 0x8000b1 <__TEXT_REGION_LENGTH__+0x7f80b1>
     864:	80 91 b0 00 	lds	r24, 0x00B0	; 0x8000b0 <__TEXT_REGION_LENGTH__+0x7f80b0>
     868:	81 60       	ori	r24, 0x01	; 1
     86a:	80 93 b0 00 	sts	0x00B0, r24	; 0x8000b0 <__TEXT_REGION_LENGTH__+0x7f80b0>
     86e:	80 91 7a 00 	lds	r24, 0x007A	; 0x80007a <__TEXT_REGION_LENGTH__+0x7f807a>
     872:	84 60       	ori	r24, 0x04	; 4
     874:	80 93 7a 00 	sts	0x007A, r24	; 0x80007a <__TEXT_REGION_LENGTH__+0x7f807a>
     878:	80 91 7a 00 	lds	r24, 0x007A	; 0x80007a <__TEXT_REGION_LENGTH__+0x7f807a>
     87c:	82 60       	ori	r24, 0x02	; 2
     87e:	80 93 7a 00 	sts	0x007A, r24	; 0x80007a <__TEXT_REGION_LENGTH__+0x7f807a>
     882:	80 91 7a 00 	lds	r24, 0x007A	; 0x80007a <__TEXT_REGION_LENGTH__+0x7f807a>
     886:	81 60       	ori	r24, 0x01	; 1
     888:	80 93 7a 00 	sts	0x007A, r24	; 0x80007a <__TEXT_REGION_LENGTH__+0x7f807a>
     88c:	80 91 7a 00 	lds	r24, 0x007A	; 0x80007a <__TEXT_REGION_LENGTH__+0x7f807a>
     890:	80 68       	ori	r24, 0x80	; 128
     892:	80 93 7a 00 	sts	0x007A, r24	; 0x80007a <__TEXT_REGION_LENGTH__+0x7f807a>
     896:	10 92 c1 00 	sts	0x00C1, r1	; 0x8000c1 <__TEXT_REGION_LENGTH__+0x7f80c1>
     89a:	e0 91 67 01 	lds	r30, 0x0167	; 0x800167 <Serial+0x10>
     89e:	f0 91 68 01 	lds	r31, 0x0168	; 0x800168 <Serial+0x11>
     8a2:	82 e0       	ldi	r24, 0x02	; 2
     8a4:	80 83       	st	Z, r24
     8a6:	e0 91 63 01 	lds	r30, 0x0163	; 0x800163 <Serial+0xc>
     8aa:	f0 91 64 01 	lds	r31, 0x0164	; 0x800164 <Serial+0xd>
     8ae:	10 82       	st	Z, r1
     8b0:	e0 91 65 01 	lds	r30, 0x0165	; 0x800165 <Serial+0xe>
     8b4:	f0 91 66 01 	lds	r31, 0x0166	; 0x800166 <Serial+0xf>
     8b8:	8f ec       	ldi	r24, 0xCF	; 207
     8ba:	80 83       	st	Z, r24
     8bc:	10 92 6f 01 	sts	0x016F, r1	; 0x80016f <Serial+0x18>
     8c0:	e0 91 6b 01 	lds	r30, 0x016B	; 0x80016b <Serial+0x14>
     8c4:	f0 91 6c 01 	lds	r31, 0x016C	; 0x80016c <Serial+0x15>
     8c8:	86 e0       	ldi	r24, 0x06	; 6
     8ca:	80 83       	st	Z, r24
     8cc:	e0 91 69 01 	lds	r30, 0x0169	; 0x800169 <Serial+0x12>
     8d0:	f0 91 6a 01 	lds	r31, 0x016A	; 0x80016a <Serial+0x13>
     8d4:	80 81       	ld	r24, Z
     8d6:	80 61       	ori	r24, 0x10	; 16
     8d8:	80 83       	st	Z, r24
     8da:	e0 91 69 01 	lds	r30, 0x0169	; 0x800169 <Serial+0x12>
     8de:	f0 91 6a 01 	lds	r31, 0x016A	; 0x80016a <Serial+0x13>
     8e2:	80 81       	ld	r24, Z
     8e4:	88 60       	ori	r24, 0x08	; 8
     8e6:	80 83       	st	Z, r24
     8e8:	e0 91 69 01 	lds	r30, 0x0169	; 0x800169 <Serial+0x12>
     8ec:	f0 91 6a 01 	lds	r31, 0x016A	; 0x80016a <Serial+0x13>
     8f0:	80 81       	ld	r24, Z
     8f2:	80 68       	ori	r24, 0x80	; 128
     8f4:	80 83       	st	Z, r24
     8f6:	e0 91 69 01 	lds	r30, 0x0169	; 0x800169 <Serial+0x12>
     8fa:	f0 91 6a 01 	lds	r31, 0x016A	; 0x80016a <Serial+0x13>
     8fe:	80 81       	ld	r24, Z
     900:	8f 7d       	andi	r24, 0xDF	; 223
     902:	80 83       	st	Z, r24
     904:	8f e2       	ldi	r24, 0x2F	; 47
     906:	91 e0       	ldi	r25, 0x01	; 1
     908:	0e 94 3e 03 	call	0x67c	; 0x67c <_ZN5Print7printlnEPKc.constprop.6>
     90c:	20 91 18 01 	lds	r18, 0x0118	; 0x800118 <i1i11i11ii1i1>
     910:	30 91 19 01 	lds	r19, 0x0119	; 0x800119 <i1i11i11ii1i1+0x1>
     914:	80 91 18 01 	lds	r24, 0x0118	; 0x800118 <i1i11i11ii1i1>
     918:	90 91 19 01 	lds	r25, 0x0119	; 0x800119 <i1i11i11ii1i1+0x1>
     91c:	28 17       	cp	r18, r24
     91e:	39 07       	cpc	r19, r25
     920:	19 f0       	breq	.+6      	; 0x928 <__stack+0x29>
     922:	0e 94 92 01 	call	0x324	; 0x324 <_Z15iii1iii1iii1ii1v>
     926:	08 c0       	rjmp	.+16     	; 0x938 <__stack+0x39>
     928:	80 91 0a 01 	lds	r24, 0x010A	; 0x80010a <i1i1ii1ii11ii>
     92c:	90 91 0b 01 	lds	r25, 0x010B	; 0x80010b <i1i1ii1ii11ii+0x1>
     930:	90 93 0f 01 	sts	0x010F, r25	; 0x80010f <ii1ii1i11ii1i1+0x1>
     934:	80 93 0e 01 	sts	0x010E, r24	; 0x80010e <ii1ii1i11ii1i1>
     938:	20 91 18 01 	lds	r18, 0x0118	; 0x800118 <i1i11i11ii1i1>
     93c:	30 91 19 01 	lds	r19, 0x0119	; 0x800119 <i1i11i11ii1i1+0x1>
     940:	80 91 0a 01 	lds	r24, 0x010A	; 0x80010a <i1i1ii1ii11ii>
     944:	90 91 0b 01 	lds	r25, 0x010B	; 0x80010b <i1i1ii1ii11ii+0x1>
     948:	28 17       	cp	r18, r24
     94a:	39 07       	cpc	r19, r25
     94c:	79 f4       	brne	.+30     	; 0x96c <__stack+0x6d>
     94e:	20 91 14 01 	lds	r18, 0x0114	; 0x800114 <i1i1iiii11ii>
     952:	30 91 15 01 	lds	r19, 0x0115	; 0x800115 <i1i1iiii11ii+0x1>
     956:	80 91 06 01 	lds	r24, 0x0106	; 0x800106 <iiii11111iii11ii>
     95a:	90 91 07 01 	lds	r25, 0x0107	; 0x800107 <iiii11111iii11ii+0x1>
     95e:	82 0f       	add	r24, r18
     960:	93 1f       	adc	r25, r19
     962:	90 93 0f 01 	sts	0x010F, r25	; 0x80010f <ii1ii1i11ii1i1+0x1>
     966:	80 93 0e 01 	sts	0x010E, r24	; 0x80010e <ii1ii1i11ii1i1>
     96a:	08 c0       	rjmp	.+16     	; 0x97c <__stack+0x7d>
     96c:	80 91 16 01 	lds	r24, 0x0116	; 0x800116 <i1ii1i11ii1i1>
     970:	90 91 17 01 	lds	r25, 0x0117	; 0x800117 <i1ii1i11ii1i1+0x1>
     974:	90 93 15 01 	sts	0x0115, r25	; 0x800115 <i1i1iiii11ii+0x1>
     978:	80 93 14 01 	sts	0x0114, r24	; 0x800114 <i1i1iiii11ii>
     97c:	20 91 04 01 	lds	r18, 0x0104	; 0x800104 <iiiii1iii1iii>
     980:	30 91 05 01 	lds	r19, 0x0105	; 0x800105 <iiiii1iii1iii+0x1>
     984:	80 91 04 01 	lds	r24, 0x0104	; 0x800104 <iiiii1iii1iii>
     988:	90 91 05 01 	lds	r25, 0x0105	; 0x800105 <iiiii1iii1iii+0x1>
     98c:	28 17       	cp	r18, r24
     98e:	39 07       	cpc	r19, r25
     990:	19 f0       	breq	.+6      	; 0x998 <__stack+0x99>
     992:	0e 94 92 01 	call	0x324	; 0x324 <_Z15iii1iii1iii1ii1v>
     996:	08 c0       	rjmp	.+16     	; 0x9a8 <__stack+0xa9>
     998:	80 91 16 01 	lds	r24, 0x0116	; 0x800116 <i1ii1i11ii1i1>
     99c:	90 91 17 01 	lds	r25, 0x0117	; 0x800117 <i1ii1i11ii1i1+0x1>
     9a0:	90 93 15 01 	sts	0x0115, r25	; 0x800115 <i1i1iiii11ii+0x1>
     9a4:	80 93 14 01 	sts	0x0114, r24	; 0x800114 <i1i1iiii11ii>
     9a8:	80 91 0b 00 	lds	r24, 0x000B	; 0x80000b <__TEXT_REGION_LENGTH__+0x7f800b>
     9ac:	90 91 0c 00 	lds	r25, 0x000C	; 0x80000c <__TEXT_REGION_LENGTH__+0x7f800c>
     9b0:	90 93 0d 01 	sts	0x010D, r25	; 0x80010d <ii11i11ii1i1+0x1>
     9b4:	80 93 0c 01 	sts	0x010C, r24	; 0x80010c <ii11i11ii1i1>
     9b8:	20 91 16 01 	lds	r18, 0x0116	; 0x800116 <i1ii1i11ii1i1>
     9bc:	30 91 17 01 	lds	r19, 0x0117	; 0x800117 <i1ii1i11ii1i1+0x1>
     9c0:	80 91 16 01 	lds	r24, 0x0116	; 0x800116 <i1ii1i11ii1i1>
     9c4:	90 91 17 01 	lds	r25, 0x0117	; 0x800117 <i1ii1i11ii1i1+0x1>
     9c8:	28 17       	cp	r18, r24
     9ca:	39 07       	cpc	r19, r25
     9cc:	49 f0       	breq	.+18     	; 0x9e0 <__stack+0xe1>
     9ce:	80 91 0a 01 	lds	r24, 0x010A	; 0x80010a <i1i1ii1ii11ii>
     9d2:	90 91 0b 01 	lds	r25, 0x010B	; 0x80010b <i1i1ii1ii11ii+0x1>
     9d6:	90 93 15 01 	sts	0x0115, r25	; 0x800115 <i1i1iiii11ii+0x1>
     9da:	80 93 14 01 	sts	0x0114, r24	; 0x800114 <i1i1iiii11ii>
     9de:	08 c0       	rjmp	.+16     	; 0x9f0 <__stack+0xf1>
     9e0:	80 91 0a 01 	lds	r24, 0x010A	; 0x80010a <i1i1ii1ii11ii>
     9e4:	90 91 0b 01 	lds	r25, 0x010B	; 0x80010b <i1i1ii1ii11ii+0x1>
     9e8:	90 93 0f 01 	sts	0x010F, r25	; 0x80010f <ii1ii1i11ii1i1+0x1>
     9ec:	80 93 0e 01 	sts	0x010E, r24	; 0x80010e <ii1ii1i11ii1i1>
     9f0:	20 91 12 01 	lds	r18, 0x0112	; 0x800112 <iiii1i1iii1ii>
     9f4:	30 91 13 01 	lds	r19, 0x0113	; 0x800113 <iiii1i1iii1ii+0x1>
     9f8:	80 91 04 01 	lds	r24, 0x0104	; 0x800104 <iiiii1iii1iii>
     9fc:	90 91 05 01 	lds	r25, 0x0105	; 0x800105 <iiiii1iii1iii+0x1>
     a00:	28 17       	cp	r18, r24
     a02:	39 07       	cpc	r19, r25
     a04:	19 f4       	brne	.+6      	; 0xa0c <__stack+0x10d>
     a06:	0e 94 92 01 	call	0x324	; 0x324 <_Z15iii1iii1iii1ii1v>
     a0a:	08 c0       	rjmp	.+16     	; 0xa1c <__stack+0x11d>
     a0c:	80 91 16 01 	lds	r24, 0x0116	; 0x800116 <i1ii1i11ii1i1>
     a10:	90 91 17 01 	lds	r25, 0x0117	; 0x800117 <i1ii1i11ii1i1+0x1>
     a14:	90 93 15 01 	sts	0x0115, r25	; 0x800115 <i1i1iiii11ii+0x1>
     a18:	80 93 14 01 	sts	0x0114, r24	; 0x800114 <i1i1iiii11ii>
     a1c:	20 91 04 01 	lds	r18, 0x0104	; 0x800104 <iiiii1iii1iii>
     a20:	30 91 05 01 	lds	r19, 0x0105	; 0x800105 <iiiii1iii1iii+0x1>
     a24:	80 91 08 01 	lds	r24, 0x0108	; 0x800108 <i1ii1iii1iii>
     a28:	90 91 09 01 	lds	r25, 0x0109	; 0x800109 <i1ii1iii1iii+0x1>
     a2c:	28 17       	cp	r18, r24
     a2e:	39 07       	cpc	r19, r25
     a30:	19 f0       	breq	.+6      	; 0xa38 <__stack+0x139>
     a32:	0e 94 92 01 	call	0x324	; 0x324 <_Z15iii1iii1iii1ii1v>
     a36:	0e c0       	rjmp	.+28     	; 0xa54 <__stack+0x155>
     a38:	80 91 12 01 	lds	r24, 0x0112	; 0x800112 <iiii1i1iii1ii>
     a3c:	90 91 13 01 	lds	r25, 0x0113	; 0x800113 <iiii1i1iii1ii+0x1>
     a40:	60 91 16 01 	lds	r22, 0x0116	; 0x800116 <i1ii1i11ii1i1>
     a44:	70 91 17 01 	lds	r23, 0x0117	; 0x800117 <i1ii1i11ii1i1+0x1>
     a48:	0e 94 a3 10 	call	0x2146	; 0x2146 <__divmodhi4>
     a4c:	90 93 0d 01 	sts	0x010D, r25	; 0x80010d <ii11i11ii1i1+0x1>
     a50:	80 93 0c 01 	sts	0x010C, r24	; 0x80010c <ii11i11ii1i1>
     a54:	20 91 12 01 	lds	r18, 0x0112	; 0x800112 <iiii1i1iii1ii>
     a58:	30 91 13 01 	lds	r19, 0x0113	; 0x800113 <iiii1i1iii1ii+0x1>
     a5c:	80 91 00 01 	lds	r24, 0x0100	; 0x800100 <__DATA_REGION_ORIGIN__>
     a60:	90 91 01 01 	lds	r25, 0x0101	; 0x800101 <__DATA_REGION_ORIGIN__+0x1>
     a64:	28 17       	cp	r18, r24
     a66:	39 07       	cpc	r19, r25
     a68:	19 f0       	breq	.+6      	; 0xa70 <__stack+0x171>
     a6a:	0e 94 92 01 	call	0x324	; 0x324 <_Z15iii1iii1iii1ii1v>
     a6e:	08 c0       	rjmp	.+16     	; 0xa80 <__stack+0x181>
     a70:	80 91 16 01 	lds	r24, 0x0116	; 0x800116 <i1ii1i11ii1i1>
     a74:	90 91 17 01 	lds	r25, 0x0117	; 0x800117 <i1ii1i11ii1i1+0x1>
     a78:	90 93 15 01 	sts	0x0115, r25	; 0x800115 <i1i1iiii11ii+0x1>
     a7c:	80 93 14 01 	sts	0x0114, r24	; 0x800114 <i1i1iiii11ii>
     a80:	20 91 18 01 	lds	r18, 0x0118	; 0x800118 <i1i11i11ii1i1>
     a84:	30 91 19 01 	lds	r19, 0x0119	; 0x800119 <i1i11i11ii1i1+0x1>
     a88:	80 91 16 01 	lds	r24, 0x0116	; 0x800116 <i1ii1i11ii1i1>
     a8c:	90 91 17 01 	lds	r25, 0x0117	; 0x800117 <i1ii1i11ii1i1+0x1>
     a90:	28 17       	cp	r18, r24
     a92:	39 07       	cpc	r19, r25
     a94:	19 f4       	brne	.+6      	; 0xa9c <__stack+0x19d>
     a96:	0e 94 92 01 	call	0x324	; 0x324 <_Z15iii1iii1iii1ii1v>
     a9a:	08 c0       	rjmp	.+16     	; 0xaac <__stack+0x1ad>
     a9c:	80 91 16 01 	lds	r24, 0x0116	; 0x800116 <i1ii1i11ii1i1>
     aa0:	90 91 17 01 	lds	r25, 0x0117	; 0x800117 <i1ii1i11ii1i1+0x1>
     aa4:	90 93 15 01 	sts	0x0115, r25	; 0x800115 <i1i1iiii11ii+0x1>
     aa8:	80 93 14 01 	sts	0x0114, r24	; 0x800114 <i1i1iiii11ii>
     aac:	20 91 12 01 	lds	r18, 0x0112	; 0x800112 <iiii1i1iii1ii>
     ab0:	30 91 13 01 	lds	r19, 0x0113	; 0x800113 <iiii1i1iii1ii+0x1>
     ab4:	80 91 10 01 	lds	r24, 0x0110	; 0x800110 <i1ii1i1iii1ii>
     ab8:	90 91 11 01 	lds	r25, 0x0111	; 0x800111 <i1ii1i1iii1ii+0x1>
     abc:	28 17       	cp	r18, r24
     abe:	39 07       	cpc	r19, r25
     ac0:	49 f4       	brne	.+18     	; 0xad4 <__stack+0x1d5>
     ac2:	80 91 18 01 	lds	r24, 0x0118	; 0x800118 <i1i11i11ii1i1>
     ac6:	90 91 19 01 	lds	r25, 0x0119	; 0x800119 <i1i11i11ii1i1+0x1>
     aca:	90 93 0f 01 	sts	0x010F, r25	; 0x80010f <ii1ii1i11ii1i1+0x1>
     ace:	80 93 0e 01 	sts	0x010E, r24	; 0x80010e <ii1ii1i11ii1i1>
     ad2:	0e c0       	rjmp	.+28     	; 0xaf0 <__stack+0x1f1>
     ad4:	80 91 12 01 	lds	r24, 0x0112	; 0x800112 <iiii1i1iii1ii>
     ad8:	90 91 13 01 	lds	r25, 0x0113	; 0x800113 <iiii1i1iii1ii+0x1>
     adc:	60 91 16 01 	lds	r22, 0x0116	; 0x800116 <i1ii1i11ii1i1>
     ae0:	70 91 17 01 	lds	r23, 0x0117	; 0x800117 <i1ii1i11ii1i1+0x1>
     ae4:	0e 94 a3 10 	call	0x2146	; 0x2146 <__divmodhi4>
     ae8:	90 93 0d 01 	sts	0x010D, r25	; 0x80010d <ii11i11ii1i1+0x1>
     aec:	80 93 0c 01 	sts	0x010C, r24	; 0x80010c <ii11i11ii1i1>
     af0:	20 91 16 01 	lds	r18, 0x0116	; 0x800116 <i1ii1i11ii1i1>
     af4:	30 91 17 01 	lds	r19, 0x0117	; 0x800117 <i1ii1i11ii1i1+0x1>
     af8:	80 91 16 01 	lds	r24, 0x0116	; 0x800116 <i1ii1i11ii1i1>
     afc:	90 91 17 01 	lds	r25, 0x0117	; 0x800117 <i1ii1i11ii1i1+0x1>
     b00:	28 17       	cp	r18, r24
     b02:	39 07       	cpc	r19, r25
     b04:	19 f0       	breq	.+6      	; 0xb0c <__stack+0x20d>
     b06:	0e 94 92 01 	call	0x324	; 0x324 <_Z15iii1iii1iii1ii1v>
     b0a:	08 c0       	rjmp	.+16     	; 0xb1c <__stack+0x21d>
     b0c:	80 91 0a 01 	lds	r24, 0x010A	; 0x80010a <i1i1ii1ii11ii>
     b10:	90 91 0b 01 	lds	r25, 0x010B	; 0x80010b <i1i1ii1ii11ii+0x1>
     b14:	90 93 0f 01 	sts	0x010F, r25	; 0x80010f <ii1ii1i11ii1i1+0x1>
     b18:	80 93 0e 01 	sts	0x010E, r24	; 0x80010e <ii1ii1i11ii1i1>
     b1c:	80 91 0a 01 	lds	r24, 0x010A	; 0x80010a <i1i1ii1ii11ii>
     b20:	90 91 0b 01 	lds	r25, 0x010B	; 0x80010b <i1i1ii1ii11ii+0x1>
     b24:	60 91 18 01 	lds	r22, 0x0118	; 0x800118 <i1i11i11ii1i1>
     b28:	70 91 19 01 	lds	r23, 0x0119	; 0x800119 <i1i11i11ii1i1+0x1>
     b2c:	0e 94 a3 10 	call	0x2146	; 0x2146 <__divmodhi4>
     b30:	90 93 0d 01 	sts	0x010D, r25	; 0x80010d <ii11i11ii1i1+0x1>
     b34:	80 93 0c 01 	sts	0x010C, r24	; 0x80010c <ii11i11ii1i1>
     b38:	20 91 08 01 	lds	r18, 0x0108	; 0x800108 <i1ii1iii1iii>
     b3c:	30 91 09 01 	lds	r19, 0x0109	; 0x800109 <i1ii1iii1iii+0x1>
     b40:	80 91 08 01 	lds	r24, 0x0108	; 0x800108 <i1ii1iii1iii>
     b44:	90 91 09 01 	lds	r25, 0x0109	; 0x800109 <i1ii1iii1iii+0x1>
     b48:	28 17       	cp	r18, r24
     b4a:	39 07       	cpc	r19, r25
     b4c:	19 f0       	breq	.+6      	; 0xb54 <__stack+0x255>
     b4e:	0e 94 92 01 	call	0x324	; 0x324 <_Z15iii1iii1iii1ii1v>
     b52:	08 c0       	rjmp	.+16     	; 0xb64 <__stack+0x265>
     b54:	80 91 16 01 	lds	r24, 0x0116	; 0x800116 <i1ii1i11ii1i1>
     b58:	90 91 17 01 	lds	r25, 0x0117	; 0x800117 <i1ii1i11ii1i1+0x1>
     b5c:	90 93 15 01 	sts	0x0115, r25	; 0x800115 <i1i1iiii11ii+0x1>
     b60:	80 93 14 01 	sts	0x0114, r24	; 0x800114 <i1i1iiii11ii>
     b64:	20 91 10 01 	lds	r18, 0x0110	; 0x800110 <i1ii1i1iii1ii>
     b68:	30 91 11 01 	lds	r19, 0x0111	; 0x800111 <i1ii1i1iii1ii+0x1>
     b6c:	80 91 02 01 	lds	r24, 0x0102	; 0x800102 <i1ii1i1iii11ii>
     b70:	90 91 03 01 	lds	r25, 0x0103	; 0x800103 <i1ii1i1iii11ii+0x1>
     b74:	28 17       	cp	r18, r24
     b76:	39 07       	cpc	r19, r25
     b78:	19 f0       	breq	.+6      	; 0xb80 <__stack+0x281>
     b7a:	0e 94 92 01 	call	0x324	; 0x324 <_Z15iii1iii1iii1ii1v>
     b7e:	08 c0       	rjmp	.+16     	; 0xb90 <__stack+0x291>
     b80:	80 91 0a 01 	lds	r24, 0x010A	; 0x80010a <i1i1ii1ii11ii>
     b84:	90 91 0b 01 	lds	r25, 0x010B	; 0x80010b <i1i1ii1ii11ii+0x1>
     b88:	90 93 0f 01 	sts	0x010F, r25	; 0x80010f <ii1ii1i11ii1i1+0x1>
     b8c:	80 93 0e 01 	sts	0x010E, r24	; 0x80010e <ii1ii1i11ii1i1>
     b90:	20 91 18 01 	lds	r18, 0x0118	; 0x800118 <i1i11i11ii1i1>
     b94:	30 91 19 01 	lds	r19, 0x0119	; 0x800119 <i1i11i11ii1i1+0x1>
     b98:	80 91 18 01 	lds	r24, 0x0118	; 0x800118 <i1i11i11ii1i1>
     b9c:	90 91 19 01 	lds	r25, 0x0119	; 0x800119 <i1i11i11ii1i1+0x1>
     ba0:	28 17       	cp	r18, r24
     ba2:	39 07       	cpc	r19, r25
     ba4:	19 f0       	breq	.+6      	; 0xbac <__stack+0x2ad>
     ba6:	0e 94 92 01 	call	0x324	; 0x324 <_Z15iii1iii1iii1ii1v>
     baa:	08 c0       	rjmp	.+16     	; 0xbbc <__stack+0x2bd>
     bac:	80 91 0a 01 	lds	r24, 0x010A	; 0x80010a <i1i1ii1ii11ii>
     bb0:	90 91 0b 01 	lds	r25, 0x010B	; 0x80010b <i1i1ii1ii11ii+0x1>
     bb4:	90 93 0f 01 	sts	0x010F, r25	; 0x80010f <ii1ii1i11ii1i1+0x1>
     bb8:	80 93 0e 01 	sts	0x010E, r24	; 0x80010e <ii1ii1i11ii1i1>
     bbc:	20 91 18 01 	lds	r18, 0x0118	; 0x800118 <i1i11i11ii1i1>
     bc0:	30 91 19 01 	lds	r19, 0x0119	; 0x800119 <i1i11i11ii1i1+0x1>
     bc4:	80 91 0a 01 	lds	r24, 0x010A	; 0x80010a <i1i1ii1ii11ii>
     bc8:	90 91 0b 01 	lds	r25, 0x010B	; 0x80010b <i1i1ii1ii11ii+0x1>
     bcc:	28 17       	cp	r18, r24
     bce:	39 07       	cpc	r19, r25
     bd0:	79 f4       	brne	.+30     	; 0xbf0 <__stack+0x2f1>
     bd2:	20 91 14 01 	lds	r18, 0x0114	; 0x800114 <i1i1iiii11ii>
     bd6:	30 91 15 01 	lds	r19, 0x0115	; 0x800115 <i1i1iiii11ii+0x1>
     bda:	80 91 06 01 	lds	r24, 0x0106	; 0x800106 <iiii11111iii11ii>
     bde:	90 91 07 01 	lds	r25, 0x0107	; 0x800107 <iiii11111iii11ii+0x1>
     be2:	82 0f       	add	r24, r18
     be4:	93 1f       	adc	r25, r19
     be6:	90 93 0f 01 	sts	0x010F, r25	; 0x80010f <ii1ii1i11ii1i1+0x1>
     bea:	80 93 0e 01 	sts	0x010E, r24	; 0x80010e <ii1ii1i11ii1i1>
     bee:	08 c0       	rjmp	.+16     	; 0xc00 <__stack+0x301>
     bf0:	80 91 16 01 	lds	r24, 0x0116	; 0x800116 <i1ii1i11ii1i1>
     bf4:	90 91 17 01 	lds	r25, 0x0117	; 0x800117 <i1ii1i11ii1i1+0x1>
     bf8:	90 93 15 01 	sts	0x0115, r25	; 0x800115 <i1i1iiii11ii+0x1>
     bfc:	80 93 14 01 	sts	0x0114, r24	; 0x800114 <i1i1iiii11ii>
     c00:	20 91 04 01 	lds	r18, 0x0104	; 0x800104 <iiiii1iii1iii>
     c04:	30 91 05 01 	lds	r19, 0x0105	; 0x800105 <iiiii1iii1iii+0x1>
     c08:	80 91 04 01 	lds	r24, 0x0104	; 0x800104 <iiiii1iii1iii>
     c0c:	90 91 05 01 	lds	r25, 0x0105	; 0x800105 <iiiii1iii1iii+0x1>
     c10:	28 17       	cp	r18, r24
     c12:	39 07       	cpc	r19, r25
     c14:	19 f0       	breq	.+6      	; 0xc1c <__stack+0x31d>
     c16:	0e 94 92 01 	call	0x324	; 0x324 <_Z15iii1iii1iii1ii1v>
     c1a:	08 c0       	rjmp	.+16     	; 0xc2c <__stack+0x32d>
     c1c:	80 91 16 01 	lds	r24, 0x0116	; 0x800116 <i1ii1i11ii1i1>
     c20:	90 91 17 01 	lds	r25, 0x0117	; 0x800117 <i1ii1i11ii1i1+0x1>
     c24:	90 93 15 01 	sts	0x0115, r25	; 0x800115 <i1i1iiii11ii+0x1>
     c28:	80 93 14 01 	sts	0x0114, r24	; 0x800114 <i1i1iiii11ii>
     c2c:	80 91 0b 00 	lds	r24, 0x000B	; 0x80000b <__TEXT_REGION_LENGTH__+0x7f800b>
     c30:	90 91 0c 00 	lds	r25, 0x000C	; 0x80000c <__TEXT_REGION_LENGTH__+0x7f800c>
     c34:	90 93 0d 01 	sts	0x010D, r25	; 0x80010d <ii11i11ii1i1+0x1>
     c38:	80 93 0c 01 	sts	0x010C, r24	; 0x80010c <ii11i11ii1i1>
     c3c:	20 91 16 01 	lds	r18, 0x0116	; 0x800116 <i1ii1i11ii1i1>
     c40:	30 91 17 01 	lds	r19, 0x0117	; 0x800117 <i1ii1i11ii1i1+0x1>
     c44:	80 91 16 01 	lds	r24, 0x0116	; 0x800116 <i1ii1i11ii1i1>
     c48:	90 91 17 01 	lds	r25, 0x0117	; 0x800117 <i1ii1i11ii1i1+0x1>
     c4c:	28 17       	cp	r18, r24
     c4e:	39 07       	cpc	r19, r25
     c50:	49 f0       	breq	.+18     	; 0xc64 <__stack+0x365>
     c52:	80 91 0a 01 	lds	r24, 0x010A	; 0x80010a <i1i1ii1ii11ii>
     c56:	90 91 0b 01 	lds	r25, 0x010B	; 0x80010b <i1i1ii1ii11ii+0x1>
     c5a:	90 93 15 01 	sts	0x0115, r25	; 0x800115 <i1i1iiii11ii+0x1>
     c5e:	80 93 14 01 	sts	0x0114, r24	; 0x800114 <i1i1iiii11ii>
     c62:	08 c0       	rjmp	.+16     	; 0xc74 <__stack+0x375>
     c64:	80 91 0a 01 	lds	r24, 0x010A	; 0x80010a <i1i1ii1ii11ii>
     c68:	90 91 0b 01 	lds	r25, 0x010B	; 0x80010b <i1i1ii1ii11ii+0x1>
     c6c:	90 93 0f 01 	sts	0x010F, r25	; 0x80010f <ii1ii1i11ii1i1+0x1>
     c70:	80 93 0e 01 	sts	0x010E, r24	; 0x80010e <ii1ii1i11ii1i1>
     c74:	20 91 12 01 	lds	r18, 0x0112	; 0x800112 <iiii1i1iii1ii>
     c78:	30 91 13 01 	lds	r19, 0x0113	; 0x800113 <iiii1i1iii1ii+0x1>
     c7c:	80 91 04 01 	lds	r24, 0x0104	; 0x800104 <iiiii1iii1iii>
     c80:	90 91 05 01 	lds	r25, 0x0105	; 0x800105 <iiiii1iii1iii+0x1>
     c84:	28 17       	cp	r18, r24
     c86:	39 07       	cpc	r19, r25
     c88:	19 f4       	brne	.+6      	; 0xc90 <__stack+0x391>
     c8a:	0e 94 92 01 	call	0x324	; 0x324 <_Z15iii1iii1iii1ii1v>
     c8e:	08 c0       	rjmp	.+16     	; 0xca0 <__stack+0x3a1>
     c90:	80 91 16 01 	lds	r24, 0x0116	; 0x800116 <i1ii1i11ii1i1>
     c94:	90 91 17 01 	lds	r25, 0x0117	; 0x800117 <i1ii1i11ii1i1+0x1>
     c98:	90 93 15 01 	sts	0x0115, r25	; 0x800115 <i1i1iiii11ii+0x1>
     c9c:	80 93 14 01 	sts	0x0114, r24	; 0x800114 <i1i1iiii11ii>
     ca0:	20 91 18 01 	lds	r18, 0x0118	; 0x800118 <i1i11i11ii1i1>
     ca4:	30 91 19 01 	lds	r19, 0x0119	; 0x800119 <i1i11i11ii1i1+0x1>
     ca8:	80 91 18 01 	lds	r24, 0x0118	; 0x800118 <i1i11i11ii1i1>
     cac:	90 91 19 01 	lds	r25, 0x0119	; 0x800119 <i1i11i11ii1i1+0x1>
     cb0:	28 17       	cp	r18, r24
     cb2:	39 07       	cpc	r19, r25
     cb4:	19 f0       	breq	.+6      	; 0xcbc <__stack+0x3bd>
     cb6:	0e 94 92 01 	call	0x324	; 0x324 <_Z15iii1iii1iii1ii1v>
     cba:	08 c0       	rjmp	.+16     	; 0xccc <__stack+0x3cd>
     cbc:	80 91 0a 01 	lds	r24, 0x010A	; 0x80010a <i1i1ii1ii11ii>
     cc0:	90 91 0b 01 	lds	r25, 0x010B	; 0x80010b <i1i1ii1ii11ii+0x1>
     cc4:	90 93 0f 01 	sts	0x010F, r25	; 0x80010f <ii1ii1i11ii1i1+0x1>
     cc8:	80 93 0e 01 	sts	0x010E, r24	; 0x80010e <ii1ii1i11ii1i1>
     ccc:	20 91 18 01 	lds	r18, 0x0118	; 0x800118 <i1i11i11ii1i1>
     cd0:	30 91 19 01 	lds	r19, 0x0119	; 0x800119 <i1i11i11ii1i1+0x1>
     cd4:	80 91 0a 01 	lds	r24, 0x010A	; 0x80010a <i1i1ii1ii11ii>
     cd8:	90 91 0b 01 	lds	r25, 0x010B	; 0x80010b <i1i1ii1ii11ii+0x1>
     cdc:	28 17       	cp	r18, r24
     cde:	39 07       	cpc	r19, r25
     ce0:	79 f4       	brne	.+30     	; 0xd00 <__stack+0x401>
     ce2:	20 91 14 01 	lds	r18, 0x0114	; 0x800114 <i1i1iiii11ii>
     ce6:	30 91 15 01 	lds	r19, 0x0115	; 0x800115 <i1i1iiii11ii+0x1>
     cea:	80 91 06 01 	lds	r24, 0x0106	; 0x800106 <iiii11111iii11ii>
     cee:	90 91 07 01 	lds	r25, 0x0107	; 0x800107 <iiii11111iii11ii+0x1>
     cf2:	82 0f       	add	r24, r18
     cf4:	93 1f       	adc	r25, r19
     cf6:	90 93 0f 01 	sts	0x010F, r25	; 0x80010f <ii1ii1i11ii1i1+0x1>
     cfa:	80 93 0e 01 	sts	0x010E, r24	; 0x80010e <ii1ii1i11ii1i1>
     cfe:	08 c0       	rjmp	.+16     	; 0xd10 <__stack+0x411>
     d00:	80 91 16 01 	lds	r24, 0x0116	; 0x800116 <i1ii1i11ii1i1>
     d04:	90 91 17 01 	lds	r25, 0x0117	; 0x800117 <i1ii1i11ii1i1+0x1>
     d08:	90 93 15 01 	sts	0x0115, r25	; 0x800115 <i1i1iiii11ii+0x1>
     d0c:	80 93 14 01 	sts	0x0114, r24	; 0x800114 <i1i1iiii11ii>
     d10:	20 91 04 01 	lds	r18, 0x0104	; 0x800104 <iiiii1iii1iii>
     d14:	30 91 05 01 	lds	r19, 0x0105	; 0x800105 <iiiii1iii1iii+0x1>
     d18:	80 91 04 01 	lds	r24, 0x0104	; 0x800104 <iiiii1iii1iii>
     d1c:	90 91 05 01 	lds	r25, 0x0105	; 0x800105 <iiiii1iii1iii+0x1>
     d20:	28 17       	cp	r18, r24
     d22:	39 07       	cpc	r19, r25
     d24:	19 f0       	breq	.+6      	; 0xd2c <__stack+0x42d>
     d26:	0e 94 92 01 	call	0x324	; 0x324 <_Z15iii1iii1iii1ii1v>
     d2a:	08 c0       	rjmp	.+16     	; 0xd3c <__stack+0x43d>
     d2c:	80 91 16 01 	lds	r24, 0x0116	; 0x800116 <i1ii1i11ii1i1>
     d30:	90 91 17 01 	lds	r25, 0x0117	; 0x800117 <i1ii1i11ii1i1+0x1>
     d34:	90 93 15 01 	sts	0x0115, r25	; 0x800115 <i1i1iiii11ii+0x1>
     d38:	80 93 14 01 	sts	0x0114, r24	; 0x800114 <i1i1iiii11ii>
     d3c:	80 91 0b 00 	lds	r24, 0x000B	; 0x80000b <__TEXT_REGION_LENGTH__+0x7f800b>
     d40:	90 91 0c 00 	lds	r25, 0x000C	; 0x80000c <__TEXT_REGION_LENGTH__+0x7f800c>
     d44:	90 93 0d 01 	sts	0x010D, r25	; 0x80010d <ii11i11ii1i1+0x1>
     d48:	80 93 0c 01 	sts	0x010C, r24	; 0x80010c <ii11i11ii1i1>
     d4c:	20 91 16 01 	lds	r18, 0x0116	; 0x800116 <i1ii1i11ii1i1>
     d50:	30 91 17 01 	lds	r19, 0x0117	; 0x800117 <i1ii1i11ii1i1+0x1>
     d54:	80 91 16 01 	lds	r24, 0x0116	; 0x800116 <i1ii1i11ii1i1>
     d58:	90 91 17 01 	lds	r25, 0x0117	; 0x800117 <i1ii1i11ii1i1+0x1>
     d5c:	28 17       	cp	r18, r24
     d5e:	39 07       	cpc	r19, r25
     d60:	49 f0       	breq	.+18     	; 0xd74 <__stack+0x475>
     d62:	80 91 0a 01 	lds	r24, 0x010A	; 0x80010a <i1i1ii1ii11ii>
     d66:	90 91 0b 01 	lds	r25, 0x010B	; 0x80010b <i1i1ii1ii11ii+0x1>
     d6a:	90 93 15 01 	sts	0x0115, r25	; 0x800115 <i1i1iiii11ii+0x1>
     d6e:	80 93 14 01 	sts	0x0114, r24	; 0x800114 <i1i1iiii11ii>
     d72:	08 c0       	rjmp	.+16     	; 0xd84 <__stack+0x485>
     d74:	80 91 0a 01 	lds	r24, 0x010A	; 0x80010a <i1i1ii1ii11ii>
     d78:	90 91 0b 01 	lds	r25, 0x010B	; 0x80010b <i1i1ii1ii11ii+0x1>
     d7c:	90 93 0f 01 	sts	0x010F, r25	; 0x80010f <ii1ii1i11ii1i1+0x1>
     d80:	80 93 0e 01 	sts	0x010E, r24	; 0x80010e <ii1ii1i11ii1i1>
     d84:	20 91 12 01 	lds	r18, 0x0112	; 0x800112 <iiii1i1iii1ii>
     d88:	30 91 13 01 	lds	r19, 0x0113	; 0x800113 <iiii1i1iii1ii+0x1>
     d8c:	80 91 04 01 	lds	r24, 0x0104	; 0x800104 <iiiii1iii1iii>
     d90:	90 91 05 01 	lds	r25, 0x0105	; 0x800105 <iiiii1iii1iii+0x1>
     d94:	28 17       	cp	r18, r24
     d96:	39 07       	cpc	r19, r25
     d98:	19 f4       	brne	.+6      	; 0xda0 <__stack+0x4a1>
     d9a:	0e 94 92 01 	call	0x324	; 0x324 <_Z15iii1iii1iii1ii1v>
     d9e:	08 c0       	rjmp	.+16     	; 0xdb0 <__stack+0x4b1>
     da0:	80 91 16 01 	lds	r24, 0x0116	; 0x800116 <i1ii1i11ii1i1>
     da4:	90 91 17 01 	lds	r25, 0x0117	; 0x800117 <i1ii1i11ii1i1+0x1>
     da8:	90 93 15 01 	sts	0x0115, r25	; 0x800115 <i1i1iiii11ii+0x1>
     dac:	80 93 14 01 	sts	0x0114, r24	; 0x800114 <i1i1iiii11ii>
     db0:	10 92 c2 00 	sts	0x00C2, r1	; 0x8000c2 <__TEXT_REGION_LENGTH__+0x7f80c2>
     db4:	10 92 c1 00 	sts	0x00C1, r1	; 0x8000c1 <__TEXT_REGION_LENGTH__+0x7f80c1>
     db8:	20 91 12 01 	lds	r18, 0x0112	; 0x800112 <iiii1i1iii1ii>
     dbc:	30 91 13 01 	lds	r19, 0x0113	; 0x800113 <iiii1i1iii1ii+0x1>
     dc0:	80 91 00 01 	lds	r24, 0x0100	; 0x800100 <__DATA_REGION_ORIGIN__>
     dc4:	90 91 01 01 	lds	r25, 0x0101	; 0x800101 <__DATA_REGION_ORIGIN__+0x1>
     dc8:	28 17       	cp	r18, r24
     dca:	39 07       	cpc	r19, r25
     dcc:	19 f4       	brne	.+6      	; 0xdd4 <__stack+0x4d5>
     dce:	0e 94 92 01 	call	0x324	; 0x324 <_Z15iii1iii1iii1ii1v>
     dd2:	08 c0       	rjmp	.+16     	; 0xde4 <__stack+0x4e5>
     dd4:	80 91 16 01 	lds	r24, 0x0116	; 0x800116 <i1ii1i11ii1i1>
     dd8:	90 91 17 01 	lds	r25, 0x0117	; 0x800117 <i1ii1i11ii1i1+0x1>
     ddc:	90 93 15 01 	sts	0x0115, r25	; 0x800115 <i1i1iiii11ii+0x1>
     de0:	80 93 14 01 	sts	0x0114, r24	; 0x800114 <i1i1iiii11ii>
     de4:	20 91 04 01 	lds	r18, 0x0104	; 0x800104 <iiiii1iii1iii>
     de8:	30 91 05 01 	lds	r19, 0x0105	; 0x800105 <iiiii1iii1iii+0x1>
     dec:	80 91 08 01 	lds	r24, 0x0108	; 0x800108 <i1ii1iii1iii>
     df0:	90 91 09 01 	lds	r25, 0x0109	; 0x800109 <i1ii1iii1iii+0x1>
     df4:	28 17       	cp	r18, r24
     df6:	39 07       	cpc	r19, r25
     df8:	19 f0       	breq	.+6      	; 0xe00 <__stack+0x501>
     dfa:	0e 94 92 01 	call	0x324	; 0x324 <_Z15iii1iii1iii1ii1v>
     dfe:	08 c0       	rjmp	.+16     	; 0xe10 <__stack+0x511>
     e00:	80 91 16 01 	lds	r24, 0x0116	; 0x800116 <i1ii1i11ii1i1>
     e04:	90 91 17 01 	lds	r25, 0x0117	; 0x800117 <i1ii1i11ii1i1+0x1>
     e08:	90 93 15 01 	sts	0x0115, r25	; 0x800115 <i1i1iiii11ii+0x1>
     e0c:	80 93 14 01 	sts	0x0114, r24	; 0x800114 <i1i1iiii11ii>
     e10:	20 91 12 01 	lds	r18, 0x0112	; 0x800112 <iiii1i1iii1ii>
     e14:	30 91 13 01 	lds	r19, 0x0113	; 0x800113 <iiii1i1iii1ii+0x1>
     e18:	80 91 12 01 	lds	r24, 0x0112	; 0x800112 <iiii1i1iii1ii>
     e1c:	90 91 13 01 	lds	r25, 0x0113	; 0x800113 <iiii1i1iii1ii+0x1>
     e20:	28 17       	cp	r18, r24
     e22:	39 07       	cpc	r19, r25
     e24:	49 f0       	breq	.+18     	; 0xe38 <__stack+0x539>
     e26:	80 91 18 01 	lds	r24, 0x0118	; 0x800118 <i1i11i11ii1i1>
     e2a:	90 91 19 01 	lds	r25, 0x0119	; 0x800119 <i1i11i11ii1i1+0x1>
     e2e:	90 93 0d 01 	sts	0x010D, r25	; 0x80010d <ii11i11ii1i1+0x1>
     e32:	80 93 0c 01 	sts	0x010C, r24	; 0x80010c <ii11i11ii1i1>
     e36:	08 c0       	rjmp	.+16     	; 0xe48 <__stack+0x549>
     e38:	80 91 16 01 	lds	r24, 0x0116	; 0x800116 <i1ii1i11ii1i1>
     e3c:	90 91 17 01 	lds	r25, 0x0117	; 0x800117 <i1ii1i11ii1i1+0x1>
     e40:	90 93 15 01 	sts	0x0115, r25	; 0x800115 <i1i1iiii11ii+0x1>
     e44:	80 93 14 01 	sts	0x0114, r24	; 0x800114 <i1i1iiii11ii>
     e48:	20 91 0a 01 	lds	r18, 0x010A	; 0x80010a <i1i1ii1ii11ii>
     e4c:	30 91 0b 01 	lds	r19, 0x010B	; 0x80010b <i1i1ii1ii11ii+0x1>
     e50:	80 91 0a 01 	lds	r24, 0x010A	; 0x80010a <i1i1ii1ii11ii>
     e54:	90 91 0b 01 	lds	r25, 0x010B	; 0x80010b <i1i1ii1ii11ii+0x1>
     e58:	28 17       	cp	r18, r24
     e5a:	39 07       	cpc	r19, r25
     e5c:	19 f0       	breq	.+6      	; 0xe64 <__stack+0x565>
     e5e:	0e 94 92 01 	call	0x324	; 0x324 <_Z15iii1iii1iii1ii1v>
     e62:	0e c0       	rjmp	.+28     	; 0xe80 <__stack+0x581>
     e64:	80 91 12 01 	lds	r24, 0x0112	; 0x800112 <iiii1i1iii1ii>
     e68:	90 91 13 01 	lds	r25, 0x0113	; 0x800113 <iiii1i1iii1ii+0x1>
     e6c:	60 91 16 01 	lds	r22, 0x0116	; 0x800116 <i1ii1i11ii1i1>
     e70:	70 91 17 01 	lds	r23, 0x0117	; 0x800117 <i1ii1i11ii1i1+0x1>
     e74:	0e 94 a3 10 	call	0x2146	; 0x2146 <__divmodhi4>
     e78:	90 93 0d 01 	sts	0x010D, r25	; 0x80010d <ii11i11ii1i1+0x1>
     e7c:	80 93 0c 01 	sts	0x010C, r24	; 0x80010c <ii11i11ii1i1>
     e80:	80 91 09 00 	lds	r24, 0x0009	; 0x800009 <__TEXT_REGION_LENGTH__+0x7f8009>
     e84:	90 91 0a 00 	lds	r25, 0x000A	; 0x80000a <__TEXT_REGION_LENGTH__+0x7f800a>
     e88:	90 93 15 01 	sts	0x0115, r25	; 0x800115 <i1i1iiii11ii+0x1>
     e8c:	80 93 14 01 	sts	0x0114, r24	; 0x800114 <i1i1iiii11ii>
     e90:	20 91 10 01 	lds	r18, 0x0110	; 0x800110 <i1ii1i1iii1ii>
     e94:	30 91 11 01 	lds	r19, 0x0111	; 0x800111 <i1ii1i1iii1ii+0x1>
     e98:	80 91 10 01 	lds	r24, 0x0110	; 0x800110 <i1ii1i1iii1ii>
     e9c:	90 91 11 01 	lds	r25, 0x0111	; 0x800111 <i1ii1i1iii1ii+0x1>
     ea0:	28 17       	cp	r18, r24
     ea2:	39 07       	cpc	r19, r25
     ea4:	19 f0       	breq	.+6      	; 0xeac <__stack+0x5ad>
     ea6:	0e 94 92 01 	call	0x324	; 0x324 <_Z15iii1iii1iii1ii1v>
     eaa:	08 c0       	rjmp	.+16     	; 0xebc <__stack+0x5bd>
     eac:	80 91 0a 01 	lds	r24, 0x010A	; 0x80010a <i1i1ii1ii11ii>
     eb0:	90 91 0b 01 	lds	r25, 0x010B	; 0x80010b <i1i1ii1ii11ii+0x1>
     eb4:	90 93 0f 01 	sts	0x010F, r25	; 0x80010f <ii1ii1i11ii1i1+0x1>
     eb8:	80 93 0e 01 	sts	0x010E, r24	; 0x80010e <ii1ii1i11ii1i1>
     ebc:	20 91 16 01 	lds	r18, 0x0116	; 0x800116 <i1ii1i11ii1i1>
     ec0:	30 91 17 01 	lds	r19, 0x0117	; 0x800117 <i1ii1i11ii1i1+0x1>
     ec4:	80 91 18 01 	lds	r24, 0x0118	; 0x800118 <i1i11i11ii1i1>
     ec8:	90 91 19 01 	lds	r25, 0x0119	; 0x800119 <i1i11i11ii1i1+0x1>
     ecc:	28 17       	cp	r18, r24
     ece:	39 07       	cpc	r19, r25
     ed0:	49 f4       	brne	.+18     	; 0xee4 <__stack+0x5e5>
     ed2:	80 91 16 01 	lds	r24, 0x0116	; 0x800116 <i1ii1i11ii1i1>
     ed6:	90 91 17 01 	lds	r25, 0x0117	; 0x800117 <i1ii1i11ii1i1+0x1>
     eda:	90 93 15 01 	sts	0x0115, r25	; 0x800115 <i1i1iiii11ii+0x1>
     ede:	80 93 14 01 	sts	0x0114, r24	; 0x800114 <i1i1iiii11ii>
     ee2:	08 c0       	rjmp	.+16     	; 0xef4 <__stack+0x5f5>
     ee4:	80 91 0a 01 	lds	r24, 0x010A	; 0x80010a <i1i1ii1ii11ii>
     ee8:	90 91 0b 01 	lds	r25, 0x010B	; 0x80010b <i1i1ii1ii11ii+0x1>
     eec:	90 93 0f 01 	sts	0x010F, r25	; 0x80010f <ii1ii1i11ii1i1+0x1>
     ef0:	80 93 0e 01 	sts	0x010E, r24	; 0x80010e <ii1ii1i11ii1i1>
     ef4:	20 91 12 01 	lds	r18, 0x0112	; 0x800112 <iiii1i1iii1ii>
     ef8:	30 91 13 01 	lds	r19, 0x0113	; 0x800113 <iiii1i1iii1ii+0x1>
     efc:	80 91 10 01 	lds	r24, 0x0110	; 0x800110 <i1ii1i1iii1ii>
     f00:	90 91 11 01 	lds	r25, 0x0111	; 0x800111 <i1ii1i1iii1ii+0x1>
     f04:	28 17       	cp	r18, r24
     f06:	39 07       	cpc	r19, r25
     f08:	19 f4       	brne	.+6      	; 0xf10 <__stack+0x611>
     f0a:	0e 94 92 01 	call	0x324	; 0x324 <_Z15iii1iii1iii1ii1v>
     f0e:	08 c0       	rjmp	.+16     	; 0xf20 <__stack+0x621>
     f10:	80 91 0a 01 	lds	r24, 0x010A	; 0x80010a <i1i1ii1ii11ii>
     f14:	90 91 0b 01 	lds	r25, 0x010B	; 0x80010b <i1i1ii1ii11ii+0x1>
     f18:	90 93 0f 01 	sts	0x010F, r25	; 0x80010f <ii1ii1i11ii1i1+0x1>
     f1c:	80 93 0e 01 	sts	0x010E, r24	; 0x80010e <ii1ii1i11ii1i1>
     f20:	20 91 16 01 	lds	r18, 0x0116	; 0x800116 <i1ii1i11ii1i1>
     f24:	30 91 17 01 	lds	r19, 0x0117	; 0x800117 <i1ii1i11ii1i1+0x1>
     f28:	80 91 0a 01 	lds	r24, 0x010A	; 0x80010a <i1i1ii1ii11ii>
     f2c:	90 91 0b 01 	lds	r25, 0x010B	; 0x80010b <i1i1ii1ii11ii+0x1>
     f30:	28 17       	cp	r18, r24
     f32:	39 07       	cpc	r19, r25
     f34:	49 f4       	brne	.+18     	; 0xf48 <__stack+0x649>
     f36:	80 91 06 01 	lds	r24, 0x0106	; 0x800106 <iiii11111iii11ii>
     f3a:	90 91 07 01 	lds	r25, 0x0107	; 0x800107 <iiii11111iii11ii+0x1>
     f3e:	90 93 0f 01 	sts	0x010F, r25	; 0x80010f <ii1ii1i11ii1i1+0x1>
     f42:	80 93 0e 01 	sts	0x010E, r24	; 0x80010e <ii1ii1i11ii1i1>
     f46:	08 c0       	rjmp	.+16     	; 0xf58 <__stack+0x659>
     f48:	80 91 16 01 	lds	r24, 0x0116	; 0x800116 <i1ii1i11ii1i1>
     f4c:	90 91 17 01 	lds	r25, 0x0117	; 0x800117 <i1ii1i11ii1i1+0x1>
     f50:	90 93 15 01 	sts	0x0115, r25	; 0x800115 <i1i1iiii11ii+0x1>
     f54:	80 93 14 01 	sts	0x0114, r24	; 0x800114 <i1i1iiii11ii>
     f58:	20 91 14 01 	lds	r18, 0x0114	; 0x800114 <i1i1iiii11ii>
     f5c:	30 91 15 01 	lds	r19, 0x0115	; 0x800115 <i1i1iiii11ii+0x1>
     f60:	80 91 0e 01 	lds	r24, 0x010E	; 0x80010e <ii1ii1i11ii1i1>
     f64:	90 91 0f 01 	lds	r25, 0x010F	; 0x80010f <ii1ii1i11ii1i1+0x1>
     f68:	82 0f       	add	r24, r18
     f6a:	93 1f       	adc	r25, r19
     f6c:	90 93 0d 01 	sts	0x010D, r25	; 0x80010d <ii11i11ii1i1+0x1>
     f70:	80 93 0c 01 	sts	0x010C, r24	; 0x80010c <ii11i11ii1i1>
     f74:	20 91 18 01 	lds	r18, 0x0118	; 0x800118 <i1i11i11ii1i1>
     f78:	30 91 19 01 	lds	r19, 0x0119	; 0x800119 <i1i11i11ii1i1+0x1>
     f7c:	80 91 18 01 	lds	r24, 0x0118	; 0x800118 <i1i11i11ii1i1>
     f80:	90 91 19 01 	lds	r25, 0x0119	; 0x800119 <i1i11i11ii1i1+0x1>
     f84:	28 17       	cp	r18, r24
     f86:	39 07       	cpc	r19, r25
     f88:	49 f0       	breq	.+18     	; 0xf9c <__stack+0x69d>
     f8a:	80 91 0c 01 	lds	r24, 0x010C	; 0x80010c <ii11i11ii1i1>
     f8e:	90 91 0d 01 	lds	r25, 0x010D	; 0x80010d <ii11i11ii1i1+0x1>
     f92:	90 93 0f 01 	sts	0x010F, r25	; 0x80010f <ii1ii1i11ii1i1+0x1>
     f96:	80 93 0e 01 	sts	0x010E, r24	; 0x80010e <ii1ii1i11ii1i1>
     f9a:	0e c0       	rjmp	.+28     	; 0xfb8 <__stack+0x6b9>
     f9c:	80 91 12 01 	lds	r24, 0x0112	; 0x800112 <iiii1i1iii1ii>
     fa0:	90 91 13 01 	lds	r25, 0x0113	; 0x800113 <iiii1i1iii1ii+0x1>
     fa4:	60 91 16 01 	lds	r22, 0x0116	; 0x800116 <i1ii1i11ii1i1>
     fa8:	70 91 17 01 	lds	r23, 0x0117	; 0x800117 <i1ii1i11ii1i1+0x1>
     fac:	0e 94 a3 10 	call	0x2146	; 0x2146 <__divmodhi4>
     fb0:	90 93 0d 01 	sts	0x010D, r25	; 0x80010d <ii11i11ii1i1+0x1>
     fb4:	80 93 0c 01 	sts	0x010C, r24	; 0x80010c <ii11i11ii1i1>
     fb8:	20 91 08 01 	lds	r18, 0x0108	; 0x800108 <i1ii1iii1iii>
     fbc:	30 91 09 01 	lds	r19, 0x0109	; 0x800109 <i1ii1iii1iii+0x1>
     fc0:	80 91 10 01 	lds	r24, 0x0110	; 0x800110 <i1ii1i1iii1ii>
     fc4:	90 91 11 01 	lds	r25, 0x0111	; 0x800111 <i1ii1i1iii1ii+0x1>
     fc8:	28 17       	cp	r18, r24
     fca:	39 07       	cpc	r19, r25
     fcc:	19 f4       	brne	.+6      	; 0xfd4 <__stack+0x6d5>
     fce:	0e 94 92 01 	call	0x324	; 0x324 <_Z15iii1iii1iii1ii1v>
     fd2:	08 c0       	rjmp	.+16     	; 0xfe4 <__stack+0x6e5>
     fd4:	80 91 0a 01 	lds	r24, 0x010A	; 0x80010a <i1i1ii1ii11ii>
     fd8:	90 91 0b 01 	lds	r25, 0x010B	; 0x80010b <i1i1ii1ii11ii+0x1>
     fdc:	90 93 0f 01 	sts	0x010F, r25	; 0x80010f <ii1ii1i11ii1i1+0x1>
     fe0:	80 93 0e 01 	sts	0x010E, r24	; 0x80010e <ii1ii1i11ii1i1>
     fe4:	20 91 12 01 	lds	r18, 0x0112	; 0x800112 <iiii1i1iii1ii>
     fe8:	30 91 13 01 	lds	r19, 0x0113	; 0x800113 <iiii1i1iii1ii+0x1>
     fec:	80 91 00 01 	lds	r24, 0x0100	; 0x800100 <__DATA_REGION_ORIGIN__>
     ff0:	90 91 01 01 	lds	r25, 0x0101	; 0x800101 <__DATA_REGION_ORIGIN__+0x1>
     ff4:	28 17       	cp	r18, r24
     ff6:	39 07       	cpc	r19, r25
     ff8:	49 f0       	breq	.+18     	; 0x100c <__stack+0x70d>
     ffa:	80 91 00 01 	lds	r24, 0x0100	; 0x800100 <__DATA_REGION_ORIGIN__>
     ffe:	90 91 01 01 	lds	r25, 0x0101	; 0x800101 <__DATA_REGION_ORIGIN__+0x1>
    1002:	90 93 13 01 	sts	0x0113, r25	; 0x800113 <iiii1i1iii1ii+0x1>
    1006:	80 93 12 01 	sts	0x0112, r24	; 0x800112 <iiii1i1iii1ii>
    100a:	08 c0       	rjmp	.+16     	; 0x101c <__stack+0x71d>
    100c:	80 91 12 01 	lds	r24, 0x0112	; 0x800112 <iiii1i1iii1ii>
    1010:	90 91 13 01 	lds	r25, 0x0113	; 0x800113 <iiii1i1iii1ii+0x1>
    1014:	90 93 01 01 	sts	0x0101, r25	; 0x800101 <__DATA_REGION_ORIGIN__+0x1>
    1018:	80 93 00 01 	sts	0x0100, r24	; 0x800100 <__DATA_REGION_ORIGIN__>
    101c:	20 91 12 01 	lds	r18, 0x0112	; 0x800112 <iiii1i1iii1ii>
    1020:	30 91 13 01 	lds	r19, 0x0113	; 0x800113 <iiii1i1iii1ii+0x1>
    1024:	80 91 12 01 	lds	r24, 0x0112	; 0x800112 <iiii1i1iii1ii>
    1028:	90 91 13 01 	lds	r25, 0x0113	; 0x800113 <iiii1i1iii1ii+0x1>
    102c:	28 17       	cp	r18, r24
    102e:	39 07       	cpc	r19, r25
    1030:	49 f0       	breq	.+18     	; 0x1044 <__stack+0x745>
    1032:	80 91 18 01 	lds	r24, 0x0118	; 0x800118 <i1i11i11ii1i1>
    1036:	90 91 19 01 	lds	r25, 0x0119	; 0x800119 <i1i11i11ii1i1+0x1>
    103a:	90 93 0d 01 	sts	0x010D, r25	; 0x80010d <ii11i11ii1i1+0x1>
    103e:	80 93 0c 01 	sts	0x010C, r24	; 0x80010c <ii11i11ii1i1>
    1042:	08 c0       	rjmp	.+16     	; 0x1054 <__stack+0x755>
    1044:	80 91 16 01 	lds	r24, 0x0116	; 0x800116 <i1ii1i11ii1i1>
    1048:	90 91 17 01 	lds	r25, 0x0117	; 0x800117 <i1ii1i11ii1i1+0x1>
    104c:	90 93 15 01 	sts	0x0115, r25	; 0x800115 <i1i1iiii11ii+0x1>
    1050:	80 93 14 01 	sts	0x0114, r24	; 0x800114 <i1i1iiii11ii>
    1054:	20 91 0a 01 	lds	r18, 0x010A	; 0x80010a <i1i1ii1ii11ii>
    1058:	30 91 0b 01 	lds	r19, 0x010B	; 0x80010b <i1i1ii1ii11ii+0x1>
    105c:	80 91 0a 01 	lds	r24, 0x010A	; 0x80010a <i1i1ii1ii11ii>
    1060:	90 91 0b 01 	lds	r25, 0x010B	; 0x80010b <i1i1ii1ii11ii+0x1>
    1064:	28 17       	cp	r18, r24
    1066:	39 07       	cpc	r19, r25
    1068:	19 f0       	breq	.+6      	; 0x1070 <__stack+0x771>
    106a:	0e 94 92 01 	call	0x324	; 0x324 <_Z15iii1iii1iii1ii1v>
    106e:	0e c0       	rjmp	.+28     	; 0x108c <__stack+0x78d>
    1070:	80 91 12 01 	lds	r24, 0x0112	; 0x800112 <iiii1i1iii1ii>
    1074:	90 91 13 01 	lds	r25, 0x0113	; 0x800113 <iiii1i1iii1ii+0x1>
    1078:	60 91 16 01 	lds	r22, 0x0116	; 0x800116 <i1ii1i11ii1i1>
    107c:	70 91 17 01 	lds	r23, 0x0117	; 0x800117 <i1ii1i11ii1i1+0x1>
    1080:	0e 94 a3 10 	call	0x2146	; 0x2146 <__divmodhi4>
    1084:	90 93 0d 01 	sts	0x010D, r25	; 0x80010d <ii11i11ii1i1+0x1>
    1088:	80 93 0c 01 	sts	0x010C, r24	; 0x80010c <ii11i11ii1i1>
    108c:	80 91 09 00 	lds	r24, 0x0009	; 0x800009 <__TEXT_REGION_LENGTH__+0x7f8009>
    1090:	90 91 0a 00 	lds	r25, 0x000A	; 0x80000a <__TEXT_REGION_LENGTH__+0x7f800a>
    1094:	90 93 15 01 	sts	0x0115, r25	; 0x800115 <i1i1iiii11ii+0x1>
    1098:	80 93 14 01 	sts	0x0114, r24	; 0x800114 <i1i1iiii11ii>
    109c:	20 91 10 01 	lds	r18, 0x0110	; 0x800110 <i1ii1i1iii1ii>
    10a0:	30 91 11 01 	lds	r19, 0x0111	; 0x800111 <i1ii1i1iii1ii+0x1>
    10a4:	80 91 10 01 	lds	r24, 0x0110	; 0x800110 <i1ii1i1iii1ii>
    10a8:	90 91 11 01 	lds	r25, 0x0111	; 0x800111 <i1ii1i1iii1ii+0x1>
    10ac:	28 17       	cp	r18, r24
    10ae:	39 07       	cpc	r19, r25
    10b0:	19 f0       	breq	.+6      	; 0x10b8 <__stack+0x7b9>
    10b2:	0e 94 92 01 	call	0x324	; 0x324 <_Z15iii1iii1iii1ii1v>
    10b6:	08 c0       	rjmp	.+16     	; 0x10c8 <__stack+0x7c9>
    10b8:	80 91 0a 01 	lds	r24, 0x010A	; 0x80010a <i1i1ii1ii11ii>
    10bc:	90 91 0b 01 	lds	r25, 0x010B	; 0x80010b <i1i1ii1ii11ii+0x1>
    10c0:	90 93 0f 01 	sts	0x010F, r25	; 0x80010f <ii1ii1i11ii1i1+0x1>
    10c4:	80 93 0e 01 	sts	0x010E, r24	; 0x80010e <ii1ii1i11ii1i1>
    10c8:	20 91 16 01 	lds	r18, 0x0116	; 0x800116 <i1ii1i11ii1i1>
    10cc:	30 91 17 01 	lds	r19, 0x0117	; 0x800117 <i1ii1i11ii1i1+0x1>
    10d0:	80 91 18 01 	lds	r24, 0x0118	; 0x800118 <i1i11i11ii1i1>
    10d4:	90 91 19 01 	lds	r25, 0x0119	; 0x800119 <i1i11i11ii1i1+0x1>
    10d8:	28 17       	cp	r18, r24
    10da:	39 07       	cpc	r19, r25
    10dc:	49 f4       	brne	.+18     	; 0x10f0 <__stack+0x7f1>
    10de:	80 91 16 01 	lds	r24, 0x0116	; 0x800116 <i1ii1i11ii1i1>
    10e2:	90 91 17 01 	lds	r25, 0x0117	; 0x800117 <i1ii1i11ii1i1+0x1>
    10e6:	90 93 15 01 	sts	0x0115, r25	; 0x800115 <i1i1iiii11ii+0x1>
    10ea:	80 93 14 01 	sts	0x0114, r24	; 0x800114 <i1i1iiii11ii>
    10ee:	08 c0       	rjmp	.+16     	; 0x1100 <__stack+0x801>
    10f0:	80 91 0a 01 	lds	r24, 0x010A	; 0x80010a <i1i1ii1ii11ii>
    10f4:	90 91 0b 01 	lds	r25, 0x010B	; 0x80010b <i1i1ii1ii11ii+0x1>
    10f8:	90 93 0f 01 	sts	0x010F, r25	; 0x80010f <ii1ii1i11ii1i1+0x1>
    10fc:	80 93 0e 01 	sts	0x010E, r24	; 0x80010e <ii1ii1i11ii1i1>
    1100:	20 91 10 01 	lds	r18, 0x0110	; 0x800110 <i1ii1i1iii1ii>
    1104:	30 91 11 01 	lds	r19, 0x0111	; 0x800111 <i1ii1i1iii1ii+0x1>
    1108:	80 91 02 01 	lds	r24, 0x0102	; 0x800102 <i1ii1i1iii11ii>
    110c:	90 91 03 01 	lds	r25, 0x0103	; 0x800103 <i1ii1i1iii11ii+0x1>
    1110:	28 17       	cp	r18, r24
    1112:	39 07       	cpc	r19, r25
    1114:	19 f4       	brne	.+6      	; 0x111c <__stack+0x81d>
    1116:	0e 94 92 01 	call	0x324	; 0x324 <_Z15iii1iii1iii1ii1v>
    111a:	08 c0       	rjmp	.+16     	; 0x112c <__stack+0x82d>
    111c:	80 91 0a 01 	lds	r24, 0x010A	; 0x80010a <i1i1ii1ii11ii>
    1120:	90 91 0b 01 	lds	r25, 0x010B	; 0x80010b <i1i1ii1ii11ii+0x1>
    1124:	90 93 0f 01 	sts	0x010F, r25	; 0x80010f <ii1ii1i11ii1i1+0x1>
    1128:	80 93 0e 01 	sts	0x010E, r24	; 0x80010e <ii1ii1i11ii1i1>
    112c:	20 91 18 01 	lds	r18, 0x0118	; 0x800118 <i1i11i11ii1i1>
    1130:	30 91 19 01 	lds	r19, 0x0119	; 0x800119 <i1i11i11ii1i1+0x1>
    1134:	80 91 16 01 	lds	r24, 0x0116	; 0x800116 <i1ii1i11ii1i1>
    1138:	90 91 17 01 	lds	r25, 0x0117	; 0x800117 <i1ii1i11ii1i1+0x1>
    113c:	28 17       	cp	r18, r24
    113e:	39 07       	cpc	r19, r25
    1140:	19 f4       	brne	.+6      	; 0x1148 <__stack+0x849>
    1142:	0e 94 92 01 	call	0x324	; 0x324 <_Z15iii1iii1iii1ii1v>
    1146:	08 c0       	rjmp	.+16     	; 0x1158 <__stack+0x859>
    1148:	80 91 16 01 	lds	r24, 0x0116	; 0x800116 <i1ii1i11ii1i1>
    114c:	90 91 17 01 	lds	r25, 0x0117	; 0x800117 <i1ii1i11ii1i1+0x1>
    1150:	90 93 15 01 	sts	0x0115, r25	; 0x800115 <i1i1iiii11ii+0x1>
    1154:	80 93 14 01 	sts	0x0114, r24	; 0x800114 <i1i1iiii11ii>
    1158:	20 91 12 01 	lds	r18, 0x0112	; 0x800112 <iiii1i1iii1ii>
    115c:	30 91 13 01 	lds	r19, 0x0113	; 0x800113 <iiii1i1iii1ii+0x1>
    1160:	80 91 10 01 	lds	r24, 0x0110	; 0x800110 <i1ii1i1iii1ii>
    1164:	90 91 11 01 	lds	r25, 0x0111	; 0x800111 <i1ii1i1iii1ii+0x1>
    1168:	28 17       	cp	r18, r24
    116a:	39 07       	cpc	r19, r25
    116c:	49 f4       	brne	.+18     	; 0x1180 <__stack+0x881>
    116e:	80 91 18 01 	lds	r24, 0x0118	; 0x800118 <i1i11i11ii1i1>
    1172:	90 91 19 01 	lds	r25, 0x0119	; 0x800119 <i1i11i11ii1i1+0x1>
    1176:	90 93 0f 01 	sts	0x010F, r25	; 0x80010f <ii1ii1i11ii1i1+0x1>
    117a:	80 93 0e 01 	sts	0x010E, r24	; 0x80010e <ii1ii1i11ii1i1>
    117e:	0e c0       	rjmp	.+28     	; 0x119c <__stack+0x89d>
    1180:	80 91 12 01 	lds	r24, 0x0112	; 0x800112 <iiii1i1iii1ii>
    1184:	90 91 13 01 	lds	r25, 0x0113	; 0x800113 <iiii1i1iii1ii+0x1>
    1188:	60 91 16 01 	lds	r22, 0x0116	; 0x800116 <i1ii1i11ii1i1>
    118c:	70 91 17 01 	lds	r23, 0x0117	; 0x800117 <i1ii1i11ii1i1+0x1>
    1190:	0e 94 a3 10 	call	0x2146	; 0x2146 <__divmodhi4>
    1194:	90 93 0d 01 	sts	0x010D, r25	; 0x80010d <ii11i11ii1i1+0x1>
    1198:	80 93 0c 01 	sts	0x010C, r24	; 0x80010c <ii11i11ii1i1>
    119c:	20 91 16 01 	lds	r18, 0x0116	; 0x800116 <i1ii1i11ii1i1>
    11a0:	30 91 17 01 	lds	r19, 0x0117	; 0x800117 <i1ii1i11ii1i1+0x1>
    11a4:	80 91 16 01 	lds	r24, 0x0116	; 0x800116 <i1ii1i11ii1i1>
    11a8:	90 91 17 01 	lds	r25, 0x0117	; 0x800117 <i1ii1i11ii1i1+0x1>
    11ac:	28 17       	cp	r18, r24
    11ae:	39 07       	cpc	r19, r25
    11b0:	19 f0       	breq	.+6      	; 0x11b8 <__stack+0x8b9>
    11b2:	0e 94 92 01 	call	0x324	; 0x324 <_Z15iii1iii1iii1ii1v>
    11b6:	08 c0       	rjmp	.+16     	; 0x11c8 <__stack+0x8c9>
    11b8:	80 91 0a 01 	lds	r24, 0x010A	; 0x80010a <i1i1ii1ii11ii>
    11bc:	90 91 0b 01 	lds	r25, 0x010B	; 0x80010b <i1i1ii1ii11ii+0x1>
    11c0:	90 93 0f 01 	sts	0x010F, r25	; 0x80010f <ii1ii1i11ii1i1+0x1>
    11c4:	80 93 0e 01 	sts	0x010E, r24	; 0x80010e <ii1ii1i11ii1i1>
    11c8:	80 91 0a 01 	lds	r24, 0x010A	; 0x80010a <i1i1ii1ii11ii>
    11cc:	90 91 0b 01 	lds	r25, 0x010B	; 0x80010b <i1i1ii1ii11ii+0x1>
    11d0:	60 91 18 01 	lds	r22, 0x0118	; 0x800118 <i1i11i11ii1i1>
    11d4:	70 91 19 01 	lds	r23, 0x0119	; 0x800119 <i1i11i11ii1i1+0x1>
    11d8:	0e 94 a3 10 	call	0x2146	; 0x2146 <__divmodhi4>
    11dc:	90 93 0d 01 	sts	0x010D, r25	; 0x80010d <ii11i11ii1i1+0x1>
    11e0:	80 93 0c 01 	sts	0x010C, r24	; 0x80010c <ii11i11ii1i1>
    11e4:	20 91 08 01 	lds	r18, 0x0108	; 0x800108 <i1ii1iii1iii>
    11e8:	30 91 09 01 	lds	r19, 0x0109	; 0x800109 <i1ii1iii1iii+0x1>
    11ec:	80 91 08 01 	lds	r24, 0x0108	; 0x800108 <i1ii1iii1iii>
    11f0:	90 91 09 01 	lds	r25, 0x0109	; 0x800109 <i1ii1iii1iii+0x1>
    11f4:	28 17       	cp	r18, r24
    11f6:	39 07       	cpc	r19, r25
    11f8:	19 f0       	breq	.+6      	; 0x1200 <__stack+0x901>
    11fa:	0e 94 92 01 	call	0x324	; 0x324 <_Z15iii1iii1iii1ii1v>
    11fe:	08 c0       	rjmp	.+16     	; 0x1210 <__stack+0x911>
    1200:	80 91 16 01 	lds	r24, 0x0116	; 0x800116 <i1ii1i11ii1i1>
    1204:	90 91 17 01 	lds	r25, 0x0117	; 0x800117 <i1ii1i11ii1i1+0x1>
    1208:	90 93 15 01 	sts	0x0115, r25	; 0x800115 <i1i1iiii11ii+0x1>
    120c:	80 93 14 01 	sts	0x0114, r24	; 0x800114 <i1i1iiii11ii>
    1210:	20 91 12 01 	lds	r18, 0x0112	; 0x800112 <iiii1i1iii1ii>
    1214:	30 91 13 01 	lds	r19, 0x0113	; 0x800113 <iiii1i1iii1ii+0x1>
    1218:	80 91 10 01 	lds	r24, 0x0110	; 0x800110 <i1ii1i1iii1ii>
    121c:	90 91 11 01 	lds	r25, 0x0111	; 0x800111 <i1ii1i1iii1ii+0x1>
    1220:	28 17       	cp	r18, r24
    1222:	39 07       	cpc	r19, r25
    1224:	19 f4       	brne	.+6      	; 0x122c <__stack+0x92d>
    1226:	0e 94 92 01 	call	0x324	; 0x324 <_Z15iii1iii1iii1ii1v>
    122a:	08 c0       	rjmp	.+16     	; 0x123c <__stack+0x93d>
    122c:	80 91 0a 01 	lds	r24, 0x010A	; 0x80010a <i1i1ii1ii11ii>
    1230:	90 91 0b 01 	lds	r25, 0x010B	; 0x80010b <i1i1ii1ii11ii+0x1>
    1234:	90 93 0f 01 	sts	0x010F, r25	; 0x80010f <ii1ii1i11ii1i1+0x1>
    1238:	80 93 0e 01 	sts	0x010E, r24	; 0x80010e <ii1ii1i11ii1i1>
    123c:	20 91 16 01 	lds	r18, 0x0116	; 0x800116 <i1ii1i11ii1i1>
    1240:	30 91 17 01 	lds	r19, 0x0117	; 0x800117 <i1ii1i11ii1i1+0x1>
    1244:	80 91 0a 01 	lds	r24, 0x010A	; 0x80010a <i1i1ii1ii11ii>
    1248:	90 91 0b 01 	lds	r25, 0x010B	; 0x80010b <i1i1ii1ii11ii+0x1>
    124c:	28 17       	cp	r18, r24
    124e:	39 07       	cpc	r19, r25
    1250:	49 f4       	brne	.+18     	; 0x1264 <__stack+0x965>
    1252:	80 91 06 01 	lds	r24, 0x0106	; 0x800106 <iiii11111iii11ii>
    1256:	90 91 07 01 	lds	r25, 0x0107	; 0x800107 <iiii11111iii11ii+0x1>
    125a:	90 93 0f 01 	sts	0x010F, r25	; 0x80010f <ii1ii1i11ii1i1+0x1>
    125e:	80 93 0e 01 	sts	0x010E, r24	; 0x80010e <ii1ii1i11ii1i1>
    1262:	08 c0       	rjmp	.+16     	; 0x1274 <__stack+0x975>
    1264:	80 91 16 01 	lds	r24, 0x0116	; 0x800116 <i1ii1i11ii1i1>
    1268:	90 91 17 01 	lds	r25, 0x0117	; 0x800117 <i1ii1i11ii1i1+0x1>
    126c:	90 93 15 01 	sts	0x0115, r25	; 0x800115 <i1i1iiii11ii+0x1>
    1270:	80 93 14 01 	sts	0x0114, r24	; 0x800114 <i1i1iiii11ii>
    1274:	20 91 14 01 	lds	r18, 0x0114	; 0x800114 <i1i1iiii11ii>
    1278:	30 91 15 01 	lds	r19, 0x0115	; 0x800115 <i1i1iiii11ii+0x1>
    127c:	80 91 0e 01 	lds	r24, 0x010E	; 0x80010e <ii1ii1i11ii1i1>
    1280:	90 91 0f 01 	lds	r25, 0x010F	; 0x80010f <ii1ii1i11ii1i1+0x1>
    1284:	82 0f       	add	r24, r18
    1286:	93 1f       	adc	r25, r19
    1288:	90 93 0d 01 	sts	0x010D, r25	; 0x80010d <ii11i11ii1i1+0x1>
    128c:	80 93 0c 01 	sts	0x010C, r24	; 0x80010c <ii11i11ii1i1>
    1290:	20 91 18 01 	lds	r18, 0x0118	; 0x800118 <i1i11i11ii1i1>
    1294:	30 91 19 01 	lds	r19, 0x0119	; 0x800119 <i1i11i11ii1i1+0x1>
    1298:	80 91 18 01 	lds	r24, 0x0118	; 0x800118 <i1i11i11ii1i1>
    129c:	90 91 19 01 	lds	r25, 0x0119	; 0x800119 <i1i11i11ii1i1+0x1>
    12a0:	28 17       	cp	r18, r24
    12a2:	39 07       	cpc	r19, r25
    12a4:	49 f0       	breq	.+18     	; 0x12b8 <__stack+0x9b9>
    12a6:	80 91 0c 01 	lds	r24, 0x010C	; 0x80010c <ii11i11ii1i1>
    12aa:	90 91 0d 01 	lds	r25, 0x010D	; 0x80010d <ii11i11ii1i1+0x1>
    12ae:	90 93 0f 01 	sts	0x010F, r25	; 0x80010f <ii1ii1i11ii1i1+0x1>
    12b2:	80 93 0e 01 	sts	0x010E, r24	; 0x80010e <ii1ii1i11ii1i1>
    12b6:	0e c0       	rjmp	.+28     	; 0x12d4 <__stack+0x9d5>
    12b8:	80 91 12 01 	lds	r24, 0x0112	; 0x800112 <iiii1i1iii1ii>
    12bc:	90 91 13 01 	lds	r25, 0x0113	; 0x800113 <iiii1i1iii1ii+0x1>
    12c0:	60 91 16 01 	lds	r22, 0x0116	; 0x800116 <i1ii1i11ii1i1>
    12c4:	70 91 17 01 	lds	r23, 0x0117	; 0x800117 <i1ii1i11ii1i1+0x1>
    12c8:	0e 94 a3 10 	call	0x2146	; 0x2146 <__divmodhi4>
    12cc:	90 93 0d 01 	sts	0x010D, r25	; 0x80010d <ii11i11ii1i1+0x1>
    12d0:	80 93 0c 01 	sts	0x010C, r24	; 0x80010c <ii11i11ii1i1>
    12d4:	20 91 08 01 	lds	r18, 0x0108	; 0x800108 <i1ii1iii1iii>
    12d8:	30 91 09 01 	lds	r19, 0x0109	; 0x800109 <i1ii1iii1iii+0x1>
    12dc:	80 91 10 01 	lds	r24, 0x0110	; 0x800110 <i1ii1i1iii1ii>
    12e0:	90 91 11 01 	lds	r25, 0x0111	; 0x800111 <i1ii1i1iii1ii+0x1>
    12e4:	28 17       	cp	r18, r24
    12e6:	39 07       	cpc	r19, r25
    12e8:	19 f4       	brne	.+6      	; 0x12f0 <__stack+0x9f1>
    12ea:	0e 94 92 01 	call	0x324	; 0x324 <_Z15iii1iii1iii1ii1v>
    12ee:	08 c0       	rjmp	.+16     	; 0x1300 <__stack+0xa01>
    12f0:	80 91 0a 01 	lds	r24, 0x010A	; 0x80010a <i1i1ii1ii11ii>
    12f4:	90 91 0b 01 	lds	r25, 0x010B	; 0x80010b <i1i1ii1ii11ii+0x1>
    12f8:	90 93 0f 01 	sts	0x010F, r25	; 0x80010f <ii1ii1i11ii1i1+0x1>
    12fc:	80 93 0e 01 	sts	0x010E, r24	; 0x80010e <ii1ii1i11ii1i1>
    1300:	20 91 04 01 	lds	r18, 0x0104	; 0x800104 <iiiii1iii1iii>
    1304:	30 91 05 01 	lds	r19, 0x0105	; 0x800105 <iiiii1iii1iii+0x1>
    1308:	80 91 08 01 	lds	r24, 0x0108	; 0x800108 <i1ii1iii1iii>
    130c:	90 91 09 01 	lds	r25, 0x0109	; 0x800109 <i1ii1iii1iii+0x1>
    1310:	28 17       	cp	r18, r24
    1312:	39 07       	cpc	r19, r25
    1314:	19 f4       	brne	.+6      	; 0x131c <__stack+0xa1d>
    1316:	0e 94 92 01 	call	0x324	; 0x324 <_Z15iii1iii1iii1ii1v>
    131a:	0e c0       	rjmp	.+28     	; 0x1338 <__stack+0xa39>
    131c:	80 91 12 01 	lds	r24, 0x0112	; 0x800112 <iiii1i1iii1ii>
    1320:	90 91 13 01 	lds	r25, 0x0113	; 0x800113 <iiii1i1iii1ii+0x1>
    1324:	60 91 16 01 	lds	r22, 0x0116	; 0x800116 <i1ii1i11ii1i1>
    1328:	70 91 17 01 	lds	r23, 0x0117	; 0x800117 <i1ii1i11ii1i1+0x1>
    132c:	0e 94 a3 10 	call	0x2146	; 0x2146 <__divmodhi4>
    1330:	90 93 0d 01 	sts	0x010D, r25	; 0x80010d <ii11i11ii1i1+0x1>
    1334:	80 93 0c 01 	sts	0x010C, r24	; 0x80010c <ii11i11ii1i1>
    1338:	20 91 12 01 	lds	r18, 0x0112	; 0x800112 <iiii1i1iii1ii>
    133c:	30 91 13 01 	lds	r19, 0x0113	; 0x800113 <iiii1i1iii1ii+0x1>
    1340:	80 91 10 01 	lds	r24, 0x0110	; 0x800110 <i1ii1i1iii1ii>
    1344:	90 91 11 01 	lds	r25, 0x0111	; 0x800111 <i1ii1i1iii1ii+0x1>
    1348:	28 17       	cp	r18, r24
    134a:	39 07       	cpc	r19, r25
    134c:	19 f4       	brne	.+6      	; 0x1354 <__stack+0xa55>
    134e:	0e 94 92 01 	call	0x324	; 0x324 <_Z15iii1iii1iii1ii1v>
    1352:	08 c0       	rjmp	.+16     	; 0x1364 <__stack+0xa65>
    1354:	80 91 0a 01 	lds	r24, 0x010A	; 0x80010a <i1i1ii1ii11ii>
    1358:	90 91 0b 01 	lds	r25, 0x010B	; 0x80010b <i1i1ii1ii11ii+0x1>
    135c:	90 93 0f 01 	sts	0x010F, r25	; 0x80010f <ii1ii1i11ii1i1+0x1>
    1360:	80 93 0e 01 	sts	0x010E, r24	; 0x80010e <ii1ii1i11ii1i1>
    1364:	20 91 16 01 	lds	r18, 0x0116	; 0x800116 <i1ii1i11ii1i1>
    1368:	30 91 17 01 	lds	r19, 0x0117	; 0x800117 <i1ii1i11ii1i1+0x1>
    136c:	80 91 0a 01 	lds	r24, 0x010A	; 0x80010a <i1i1ii1ii11ii>
    1370:	90 91 0b 01 	lds	r25, 0x010B	; 0x80010b <i1i1ii1ii11ii+0x1>
    1374:	28 17       	cp	r18, r24
    1376:	39 07       	cpc	r19, r25
    1378:	49 f4       	brne	.+18     	; 0x138c <__stack+0xa8d>
    137a:	80 91 06 01 	lds	r24, 0x0106	; 0x800106 <iiii11111iii11ii>
    137e:	90 91 07 01 	lds	r25, 0x0107	; 0x800107 <iiii11111iii11ii+0x1>
    1382:	90 93 0f 01 	sts	0x010F, r25	; 0x80010f <ii1ii1i11ii1i1+0x1>
    1386:	80 93 0e 01 	sts	0x010E, r24	; 0x80010e <ii1ii1i11ii1i1>
    138a:	08 c0       	rjmp	.+16     	; 0x139c <__stack+0xa9d>
    138c:	80 91 16 01 	lds	r24, 0x0116	; 0x800116 <i1ii1i11ii1i1>
    1390:	90 91 17 01 	lds	r25, 0x0117	; 0x800117 <i1ii1i11ii1i1+0x1>
    1394:	90 93 15 01 	sts	0x0115, r25	; 0x800115 <i1i1iiii11ii+0x1>
    1398:	80 93 14 01 	sts	0x0114, r24	; 0x800114 <i1i1iiii11ii>
    139c:	20 91 14 01 	lds	r18, 0x0114	; 0x800114 <i1i1iiii11ii>
    13a0:	30 91 15 01 	lds	r19, 0x0115	; 0x800115 <i1i1iiii11ii+0x1>
    13a4:	80 91 0e 01 	lds	r24, 0x010E	; 0x80010e <ii1ii1i11ii1i1>
    13a8:	90 91 0f 01 	lds	r25, 0x010F	; 0x80010f <ii1ii1i11ii1i1+0x1>
    13ac:	82 0f       	add	r24, r18
    13ae:	93 1f       	adc	r25, r19
    13b0:	90 93 0d 01 	sts	0x010D, r25	; 0x80010d <ii11i11ii1i1+0x1>
    13b4:	80 93 0c 01 	sts	0x010C, r24	; 0x80010c <ii11i11ii1i1>
    13b8:	20 91 18 01 	lds	r18, 0x0118	; 0x800118 <i1i11i11ii1i1>
    13bc:	30 91 19 01 	lds	r19, 0x0119	; 0x800119 <i1i11i11ii1i1+0x1>
    13c0:	80 91 18 01 	lds	r24, 0x0118	; 0x800118 <i1i11i11ii1i1>
    13c4:	90 91 19 01 	lds	r25, 0x0119	; 0x800119 <i1i11i11ii1i1+0x1>
    13c8:	28 17       	cp	r18, r24
    13ca:	39 07       	cpc	r19, r25
    13cc:	49 f0       	breq	.+18     	; 0x13e0 <__stack+0xae1>
    13ce:	80 91 0c 01 	lds	r24, 0x010C	; 0x80010c <ii11i11ii1i1>
    13d2:	90 91 0d 01 	lds	r25, 0x010D	; 0x80010d <ii11i11ii1i1+0x1>
    13d6:	90 93 0f 01 	sts	0x010F, r25	; 0x80010f <ii1ii1i11ii1i1+0x1>
    13da:	80 93 0e 01 	sts	0x010E, r24	; 0x80010e <ii1ii1i11ii1i1>
    13de:	0e c0       	rjmp	.+28     	; 0x13fc <__stack+0xafd>
    13e0:	80 91 12 01 	lds	r24, 0x0112	; 0x800112 <iiii1i1iii1ii>
    13e4:	90 91 13 01 	lds	r25, 0x0113	; 0x800113 <iiii1i1iii1ii+0x1>
    13e8:	60 91 16 01 	lds	r22, 0x0116	; 0x800116 <i1ii1i11ii1i1>
    13ec:	70 91 17 01 	lds	r23, 0x0117	; 0x800117 <i1ii1i11ii1i1+0x1>
    13f0:	0e 94 a3 10 	call	0x2146	; 0x2146 <__divmodhi4>
    13f4:	90 93 0d 01 	sts	0x010D, r25	; 0x80010d <ii11i11ii1i1+0x1>
    13f8:	80 93 0c 01 	sts	0x010C, r24	; 0x80010c <ii11i11ii1i1>
    13fc:	20 91 08 01 	lds	r18, 0x0108	; 0x800108 <i1ii1iii1iii>
    1400:	30 91 09 01 	lds	r19, 0x0109	; 0x800109 <i1ii1iii1iii+0x1>
    1404:	80 91 10 01 	lds	r24, 0x0110	; 0x800110 <i1ii1i1iii1ii>
    1408:	90 91 11 01 	lds	r25, 0x0111	; 0x800111 <i1ii1i1iii1ii+0x1>
    140c:	28 17       	cp	r18, r24
    140e:	39 07       	cpc	r19, r25
    1410:	19 f4       	brne	.+6      	; 0x1418 <__stack+0xb19>
    1412:	0e 94 92 01 	call	0x324	; 0x324 <_Z15iii1iii1iii1ii1v>
    1416:	08 c0       	rjmp	.+16     	; 0x1428 <__stack+0xb29>
    1418:	80 91 0a 01 	lds	r24, 0x010A	; 0x80010a <i1i1ii1ii11ii>
    141c:	90 91 0b 01 	lds	r25, 0x010B	; 0x80010b <i1i1ii1ii11ii+0x1>
    1420:	90 93 0f 01 	sts	0x010F, r25	; 0x80010f <ii1ii1i11ii1i1+0x1>
    1424:	80 93 0e 01 	sts	0x010E, r24	; 0x80010e <ii1ii1i11ii1i1>
    1428:	20 91 12 01 	lds	r18, 0x0112	; 0x800112 <iiii1i1iii1ii>
    142c:	30 91 13 01 	lds	r19, 0x0113	; 0x800113 <iiii1i1iii1ii+0x1>
    1430:	80 91 12 01 	lds	r24, 0x0112	; 0x800112 <iiii1i1iii1ii>
    1434:	90 91 13 01 	lds	r25, 0x0113	; 0x800113 <iiii1i1iii1ii+0x1>
    1438:	28 17       	cp	r18, r24
    143a:	39 07       	cpc	r19, r25
    143c:	49 f0       	breq	.+18     	; 0x1450 <__stack+0xb51>
    143e:	80 91 18 01 	lds	r24, 0x0118	; 0x800118 <i1i11i11ii1i1>
    1442:	90 91 19 01 	lds	r25, 0x0119	; 0x800119 <i1i11i11ii1i1+0x1>
    1446:	90 93 0d 01 	sts	0x010D, r25	; 0x80010d <ii11i11ii1i1+0x1>
    144a:	80 93 0c 01 	sts	0x010C, r24	; 0x80010c <ii11i11ii1i1>
    144e:	08 c0       	rjmp	.+16     	; 0x1460 <__stack+0xb61>
    1450:	80 91 16 01 	lds	r24, 0x0116	; 0x800116 <i1ii1i11ii1i1>
    1454:	90 91 17 01 	lds	r25, 0x0117	; 0x800117 <i1ii1i11ii1i1+0x1>
    1458:	90 93 15 01 	sts	0x0115, r25	; 0x800115 <i1i1iiii11ii+0x1>
    145c:	80 93 14 01 	sts	0x0114, r24	; 0x800114 <i1i1iiii11ii>
    1460:	20 91 0a 01 	lds	r18, 0x010A	; 0x80010a <i1i1ii1ii11ii>
    1464:	30 91 0b 01 	lds	r19, 0x010B	; 0x80010b <i1i1ii1ii11ii+0x1>
    1468:	80 91 0a 01 	lds	r24, 0x010A	; 0x80010a <i1i1ii1ii11ii>
    146c:	90 91 0b 01 	lds	r25, 0x010B	; 0x80010b <i1i1ii1ii11ii+0x1>
    1470:	28 17       	cp	r18, r24
    1472:	39 07       	cpc	r19, r25
    1474:	19 f0       	breq	.+6      	; 0x147c <__stack+0xb7d>
    1476:	0e 94 92 01 	call	0x324	; 0x324 <_Z15iii1iii1iii1ii1v>
    147a:	0e c0       	rjmp	.+28     	; 0x1498 <__stack+0xb99>
    147c:	80 91 12 01 	lds	r24, 0x0112	; 0x800112 <iiii1i1iii1ii>
    1480:	90 91 13 01 	lds	r25, 0x0113	; 0x800113 <iiii1i1iii1ii+0x1>
    1484:	60 91 16 01 	lds	r22, 0x0116	; 0x800116 <i1ii1i11ii1i1>
    1488:	70 91 17 01 	lds	r23, 0x0117	; 0x800117 <i1ii1i11ii1i1+0x1>
    148c:	0e 94 a3 10 	call	0x2146	; 0x2146 <__divmodhi4>
    1490:	90 93 0d 01 	sts	0x010D, r25	; 0x80010d <ii11i11ii1i1+0x1>
    1494:	80 93 0c 01 	sts	0x010C, r24	; 0x80010c <ii11i11ii1i1>
    1498:	80 91 09 00 	lds	r24, 0x0009	; 0x800009 <__TEXT_REGION_LENGTH__+0x7f8009>
    149c:	90 91 0a 00 	lds	r25, 0x000A	; 0x80000a <__TEXT_REGION_LENGTH__+0x7f800a>
    14a0:	90 93 15 01 	sts	0x0115, r25	; 0x800115 <i1i1iiii11ii+0x1>
    14a4:	80 93 14 01 	sts	0x0114, r24	; 0x800114 <i1i1iiii11ii>
    14a8:	20 91 10 01 	lds	r18, 0x0110	; 0x800110 <i1ii1i1iii1ii>
    14ac:	30 91 11 01 	lds	r19, 0x0111	; 0x800111 <i1ii1i1iii1ii+0x1>
    14b0:	80 91 10 01 	lds	r24, 0x0110	; 0x800110 <i1ii1i1iii1ii>
    14b4:	90 91 11 01 	lds	r25, 0x0111	; 0x800111 <i1ii1i1iii1ii+0x1>
    14b8:	28 17       	cp	r18, r24
    14ba:	39 07       	cpc	r19, r25
    14bc:	19 f0       	breq	.+6      	; 0x14c4 <__stack+0xbc5>
    14be:	0e 94 92 01 	call	0x324	; 0x324 <_Z15iii1iii1iii1ii1v>
    14c2:	08 c0       	rjmp	.+16     	; 0x14d4 <__stack+0xbd5>
    14c4:	80 91 0a 01 	lds	r24, 0x010A	; 0x80010a <i1i1ii1ii11ii>
    14c8:	90 91 0b 01 	lds	r25, 0x010B	; 0x80010b <i1i1ii1ii11ii+0x1>
    14cc:	90 93 0f 01 	sts	0x010F, r25	; 0x80010f <ii1ii1i11ii1i1+0x1>
    14d0:	80 93 0e 01 	sts	0x010E, r24	; 0x80010e <ii1ii1i11ii1i1>
    14d4:	20 91 16 01 	lds	r18, 0x0116	; 0x800116 <i1ii1i11ii1i1>
    14d8:	30 91 17 01 	lds	r19, 0x0117	; 0x800117 <i1ii1i11ii1i1+0x1>
    14dc:	80 91 18 01 	lds	r24, 0x0118	; 0x800118 <i1i11i11ii1i1>
    14e0:	90 91 19 01 	lds	r25, 0x0119	; 0x800119 <i1i11i11ii1i1+0x1>
    14e4:	28 17       	cp	r18, r24
    14e6:	39 07       	cpc	r19, r25
    14e8:	49 f4       	brne	.+18     	; 0x14fc <__stack+0xbfd>
    14ea:	80 91 16 01 	lds	r24, 0x0116	; 0x800116 <i1ii1i11ii1i1>
    14ee:	90 91 17 01 	lds	r25, 0x0117	; 0x800117 <i1ii1i11ii1i1+0x1>
    14f2:	90 93 15 01 	sts	0x0115, r25	; 0x800115 <i1i1iiii11ii+0x1>
    14f6:	80 93 14 01 	sts	0x0114, r24	; 0x800114 <i1i1iiii11ii>
    14fa:	08 c0       	rjmp	.+16     	; 0x150c <__stack+0xc0d>
    14fc:	80 91 0a 01 	lds	r24, 0x010A	; 0x80010a <i1i1ii1ii11ii>
    1500:	90 91 0b 01 	lds	r25, 0x010B	; 0x80010b <i1i1ii1ii11ii+0x1>
    1504:	90 93 0f 01 	sts	0x010F, r25	; 0x80010f <ii1ii1i11ii1i1+0x1>
    1508:	80 93 0e 01 	sts	0x010E, r24	; 0x80010e <ii1ii1i11ii1i1>
    150c:	20 91 12 01 	lds	r18, 0x0112	; 0x800112 <iiii1i1iii1ii>
    1510:	30 91 13 01 	lds	r19, 0x0113	; 0x800113 <iiii1i1iii1ii+0x1>
    1514:	80 91 00 01 	lds	r24, 0x0100	; 0x800100 <__DATA_REGION_ORIGIN__>
    1518:	90 91 01 01 	lds	r25, 0x0101	; 0x800101 <__DATA_REGION_ORIGIN__+0x1>
    151c:	28 17       	cp	r18, r24
    151e:	39 07       	cpc	r19, r25
    1520:	19 f4       	brne	.+6      	; 0x1528 <__stack+0xc29>
    1522:	0e 94 92 01 	call	0x324	; 0x324 <_Z15iii1iii1iii1ii1v>
    1526:	08 c0       	rjmp	.+16     	; 0x1538 <__stack+0xc39>
    1528:	80 91 16 01 	lds	r24, 0x0116	; 0x800116 <i1ii1i11ii1i1>
    152c:	90 91 17 01 	lds	r25, 0x0117	; 0x800117 <i1ii1i11ii1i1+0x1>
    1530:	90 93 15 01 	sts	0x0115, r25	; 0x800115 <i1i1iiii11ii+0x1>
    1534:	80 93 14 01 	sts	0x0114, r24	; 0x800114 <i1i1iiii11ii>
    1538:	20 91 04 01 	lds	r18, 0x0104	; 0x800104 <iiiii1iii1iii>
    153c:	30 91 05 01 	lds	r19, 0x0105	; 0x800105 <iiiii1iii1iii+0x1>
    1540:	80 91 08 01 	lds	r24, 0x0108	; 0x800108 <i1ii1iii1iii>
    1544:	90 91 09 01 	lds	r25, 0x0109	; 0x800109 <i1ii1iii1iii+0x1>
    1548:	28 17       	cp	r18, r24
    154a:	39 07       	cpc	r19, r25
    154c:	49 f0       	breq	.+18     	; 0x1560 <__stack+0xc61>
    154e:	80 91 08 01 	lds	r24, 0x0108	; 0x800108 <i1ii1iii1iii>
    1552:	90 91 09 01 	lds	r25, 0x0109	; 0x800109 <i1ii1iii1iii+0x1>
    1556:	90 93 05 01 	sts	0x0105, r25	; 0x800105 <iiiii1iii1iii+0x1>
    155a:	80 93 04 01 	sts	0x0104, r24	; 0x800104 <iiiii1iii1iii>
    155e:	08 c0       	rjmp	.+16     	; 0x1570 <__stack+0xc71>
    1560:	80 91 10 01 	lds	r24, 0x0110	; 0x800110 <i1ii1i1iii1ii>
    1564:	90 91 11 01 	lds	r25, 0x0111	; 0x800111 <i1ii1i1iii1ii+0x1>
    1568:	90 93 01 01 	sts	0x0101, r25	; 0x800101 <__DATA_REGION_ORIGIN__+0x1>
    156c:	80 93 00 01 	sts	0x0100, r24	; 0x800100 <__DATA_REGION_ORIGIN__>
    1570:	20 91 18 01 	lds	r18, 0x0118	; 0x800118 <i1i11i11ii1i1>
    1574:	30 91 19 01 	lds	r19, 0x0119	; 0x800119 <i1i11i11ii1i1+0x1>
    1578:	80 91 16 01 	lds	r24, 0x0116	; 0x800116 <i1ii1i11ii1i1>
    157c:	90 91 17 01 	lds	r25, 0x0117	; 0x800117 <i1ii1i11ii1i1+0x1>
    1580:	28 17       	cp	r18, r24
    1582:	39 07       	cpc	r19, r25
    1584:	19 f4       	brne	.+6      	; 0x158c <__stack+0xc8d>
    1586:	0e 94 92 01 	call	0x324	; 0x324 <_Z15iii1iii1iii1ii1v>
    158a:	08 c0       	rjmp	.+16     	; 0x159c <__stack+0xc9d>
    158c:	80 91 16 01 	lds	r24, 0x0116	; 0x800116 <i1ii1i11ii1i1>
    1590:	90 91 17 01 	lds	r25, 0x0117	; 0x800117 <i1ii1i11ii1i1+0x1>
    1594:	90 93 15 01 	sts	0x0115, r25	; 0x800115 <i1i1iiii11ii+0x1>
    1598:	80 93 14 01 	sts	0x0114, r24	; 0x800114 <i1i1iiii11ii>
    159c:	20 91 12 01 	lds	r18, 0x0112	; 0x800112 <iiii1i1iii1ii>
    15a0:	30 91 13 01 	lds	r19, 0x0113	; 0x800113 <iiii1i1iii1ii+0x1>
    15a4:	80 91 10 01 	lds	r24, 0x0110	; 0x800110 <i1ii1i1iii1ii>
    15a8:	90 91 11 01 	lds	r25, 0x0111	; 0x800111 <i1ii1i1iii1ii+0x1>
    15ac:	28 17       	cp	r18, r24
    15ae:	39 07       	cpc	r19, r25
    15b0:	49 f4       	brne	.+18     	; 0x15c4 <__stack+0xcc5>
    15b2:	80 91 18 01 	lds	r24, 0x0118	; 0x800118 <i1i11i11ii1i1>
    15b6:	90 91 19 01 	lds	r25, 0x0119	; 0x800119 <i1i11i11ii1i1+0x1>
    15ba:	90 93 0f 01 	sts	0x010F, r25	; 0x80010f <ii1ii1i11ii1i1+0x1>
    15be:	80 93 0e 01 	sts	0x010E, r24	; 0x80010e <ii1ii1i11ii1i1>
    15c2:	0e c0       	rjmp	.+28     	; 0x15e0 <__stack+0xce1>
    15c4:	80 91 12 01 	lds	r24, 0x0112	; 0x800112 <iiii1i1iii1ii>
    15c8:	90 91 13 01 	lds	r25, 0x0113	; 0x800113 <iiii1i1iii1ii+0x1>
    15cc:	60 91 16 01 	lds	r22, 0x0116	; 0x800116 <i1ii1i11ii1i1>
    15d0:	70 91 17 01 	lds	r23, 0x0117	; 0x800117 <i1ii1i11ii1i1+0x1>
    15d4:	0e 94 a3 10 	call	0x2146	; 0x2146 <__divmodhi4>
    15d8:	90 93 0d 01 	sts	0x010D, r25	; 0x80010d <ii11i11ii1i1+0x1>
    15dc:	80 93 0c 01 	sts	0x010C, r24	; 0x80010c <ii11i11ii1i1>
    15e0:	20 91 16 01 	lds	r18, 0x0116	; 0x800116 <i1ii1i11ii1i1>
    15e4:	30 91 17 01 	lds	r19, 0x0117	; 0x800117 <i1ii1i11ii1i1+0x1>
    15e8:	80 91 16 01 	lds	r24, 0x0116	; 0x800116 <i1ii1i11ii1i1>
    15ec:	90 91 17 01 	lds	r25, 0x0117	; 0x800117 <i1ii1i11ii1i1+0x1>
    15f0:	28 17       	cp	r18, r24
    15f2:	39 07       	cpc	r19, r25
    15f4:	19 f0       	breq	.+6      	; 0x15fc <__stack+0xcfd>
    15f6:	0e 94 92 01 	call	0x324	; 0x324 <_Z15iii1iii1iii1ii1v>
    15fa:	08 c0       	rjmp	.+16     	; 0x160c <__stack+0xd0d>
    15fc:	80 91 0a 01 	lds	r24, 0x010A	; 0x80010a <i1i1ii1ii11ii>
    1600:	90 91 0b 01 	lds	r25, 0x010B	; 0x80010b <i1i1ii1ii11ii+0x1>
    1604:	90 93 0f 01 	sts	0x010F, r25	; 0x80010f <ii1ii1i11ii1i1+0x1>
    1608:	80 93 0e 01 	sts	0x010E, r24	; 0x80010e <ii1ii1i11ii1i1>
    160c:	80 91 0a 01 	lds	r24, 0x010A	; 0x80010a <i1i1ii1ii11ii>
    1610:	90 91 0b 01 	lds	r25, 0x010B	; 0x80010b <i1i1ii1ii11ii+0x1>
    1614:	60 91 18 01 	lds	r22, 0x0118	; 0x800118 <i1i11i11ii1i1>
    1618:	70 91 19 01 	lds	r23, 0x0119	; 0x800119 <i1i11i11ii1i1+0x1>
    161c:	0e 94 a3 10 	call	0x2146	; 0x2146 <__divmodhi4>
    1620:	90 93 0d 01 	sts	0x010D, r25	; 0x80010d <ii11i11ii1i1+0x1>
    1624:	80 93 0c 01 	sts	0x010C, r24	; 0x80010c <ii11i11ii1i1>
    1628:	20 91 08 01 	lds	r18, 0x0108	; 0x800108 <i1ii1iii1iii>
    162c:	30 91 09 01 	lds	r19, 0x0109	; 0x800109 <i1ii1iii1iii+0x1>
    1630:	80 91 08 01 	lds	r24, 0x0108	; 0x800108 <i1ii1iii1iii>
    1634:	90 91 09 01 	lds	r25, 0x0109	; 0x800109 <i1ii1iii1iii+0x1>
    1638:	28 17       	cp	r18, r24
    163a:	39 07       	cpc	r19, r25
    163c:	19 f0       	breq	.+6      	; 0x1644 <__stack+0xd45>
    163e:	0e 94 92 01 	call	0x324	; 0x324 <_Z15iii1iii1iii1ii1v>
    1642:	08 c0       	rjmp	.+16     	; 0x1654 <__stack+0xd55>
    1644:	80 91 16 01 	lds	r24, 0x0116	; 0x800116 <i1ii1i11ii1i1>
    1648:	90 91 17 01 	lds	r25, 0x0117	; 0x800117 <i1ii1i11ii1i1+0x1>
    164c:	90 93 15 01 	sts	0x0115, r25	; 0x800115 <i1i1iiii11ii+0x1>
    1650:	80 93 14 01 	sts	0x0114, r24	; 0x800114 <i1i1iiii11ii>
    1654:	20 91 10 01 	lds	r18, 0x0110	; 0x800110 <i1ii1i1iii1ii>
    1658:	30 91 11 01 	lds	r19, 0x0111	; 0x800111 <i1ii1i1iii1ii+0x1>
    165c:	80 91 02 01 	lds	r24, 0x0102	; 0x800102 <i1ii1i1iii11ii>
    1660:	90 91 03 01 	lds	r25, 0x0103	; 0x800103 <i1ii1i1iii11ii+0x1>
    1664:	28 17       	cp	r18, r24
    1666:	39 07       	cpc	r19, r25
    1668:	19 f4       	brne	.+6      	; 0x1670 <__stack+0xd71>
    166a:	0e 94 92 01 	call	0x324	; 0x324 <_Z15iii1iii1iii1ii1v>
    166e:	08 c0       	rjmp	.+16     	; 0x1680 <__stack+0xd81>
    1670:	80 91 16 01 	lds	r24, 0x0116	; 0x800116 <i1ii1i11ii1i1>
    1674:	90 91 17 01 	lds	r25, 0x0117	; 0x800117 <i1ii1i11ii1i1+0x1>
    1678:	90 93 15 01 	sts	0x0115, r25	; 0x800115 <i1i1iiii11ii+0x1>
    167c:	80 93 14 01 	sts	0x0114, r24	; 0x800114 <i1i1iiii11ii>
    1680:	20 91 18 01 	lds	r18, 0x0118	; 0x800118 <i1i11i11ii1i1>
    1684:	30 91 19 01 	lds	r19, 0x0119	; 0x800119 <i1i11i11ii1i1+0x1>
    1688:	80 91 18 01 	lds	r24, 0x0118	; 0x800118 <i1i11i11ii1i1>
    168c:	90 91 19 01 	lds	r25, 0x0119	; 0x800119 <i1i11i11ii1i1+0x1>
    1690:	28 17       	cp	r18, r24
    1692:	39 07       	cpc	r19, r25
    1694:	19 f0       	breq	.+6      	; 0x169c <__stack+0xd9d>
    1696:	0e 94 92 01 	call	0x324	; 0x324 <_Z15iii1iii1iii1ii1v>
    169a:	08 c0       	rjmp	.+16     	; 0x16ac <__stack+0xdad>
    169c:	80 91 0a 01 	lds	r24, 0x010A	; 0x80010a <i1i1ii1ii11ii>
    16a0:	90 91 0b 01 	lds	r25, 0x010B	; 0x80010b <i1i1ii1ii11ii+0x1>
    16a4:	90 93 0f 01 	sts	0x010F, r25	; 0x80010f <ii1ii1i11ii1i1+0x1>
    16a8:	80 93 0e 01 	sts	0x010E, r24	; 0x80010e <ii1ii1i11ii1i1>
    16ac:	20 91 18 01 	lds	r18, 0x0118	; 0x800118 <i1i11i11ii1i1>
    16b0:	30 91 19 01 	lds	r19, 0x0119	; 0x800119 <i1i11i11ii1i1+0x1>
    16b4:	80 91 0a 01 	lds	r24, 0x010A	; 0x80010a <i1i1ii1ii11ii>
    16b8:	90 91 0b 01 	lds	r25, 0x010B	; 0x80010b <i1i1ii1ii11ii+0x1>
    16bc:	28 17       	cp	r18, r24
    16be:	39 07       	cpc	r19, r25
    16c0:	79 f4       	brne	.+30     	; 0x16e0 <__stack+0xde1>
    16c2:	20 91 14 01 	lds	r18, 0x0114	; 0x800114 <i1i1iiii11ii>
    16c6:	30 91 15 01 	lds	r19, 0x0115	; 0x800115 <i1i1iiii11ii+0x1>
    16ca:	80 91 06 01 	lds	r24, 0x0106	; 0x800106 <iiii11111iii11ii>
    16ce:	90 91 07 01 	lds	r25, 0x0107	; 0x800107 <iiii11111iii11ii+0x1>
    16d2:	82 0f       	add	r24, r18
    16d4:	93 1f       	adc	r25, r19
    16d6:	90 93 0f 01 	sts	0x010F, r25	; 0x80010f <ii1ii1i11ii1i1+0x1>
    16da:	80 93 0e 01 	sts	0x010E, r24	; 0x80010e <ii1ii1i11ii1i1>
    16de:	08 c0       	rjmp	.+16     	; 0x16f0 <__stack+0xdf1>
    16e0:	80 91 16 01 	lds	r24, 0x0116	; 0x800116 <i1ii1i11ii1i1>
    16e4:	90 91 17 01 	lds	r25, 0x0117	; 0x800117 <i1ii1i11ii1i1+0x1>
    16e8:	90 93 15 01 	sts	0x0115, r25	; 0x800115 <i1i1iiii11ii+0x1>
    16ec:	80 93 14 01 	sts	0x0114, r24	; 0x800114 <i1i1iiii11ii>
    16f0:	20 91 04 01 	lds	r18, 0x0104	; 0x800104 <iiiii1iii1iii>
    16f4:	30 91 05 01 	lds	r19, 0x0105	; 0x800105 <iiiii1iii1iii+0x1>
    16f8:	80 91 04 01 	lds	r24, 0x0104	; 0x800104 <iiiii1iii1iii>
    16fc:	90 91 05 01 	lds	r25, 0x0105	; 0x800105 <iiiii1iii1iii+0x1>
    1700:	28 17       	cp	r18, r24
    1702:	39 07       	cpc	r19, r25
    1704:	19 f0       	breq	.+6      	; 0x170c <__stack+0xe0d>
    1706:	0e 94 92 01 	call	0x324	; 0x324 <_Z15iii1iii1iii1ii1v>
    170a:	08 c0       	rjmp	.+16     	; 0x171c <__stack+0xe1d>
    170c:	80 91 16 01 	lds	r24, 0x0116	; 0x800116 <i1ii1i11ii1i1>
    1710:	90 91 17 01 	lds	r25, 0x0117	; 0x800117 <i1ii1i11ii1i1+0x1>
    1714:	90 93 15 01 	sts	0x0115, r25	; 0x800115 <i1i1iiii11ii+0x1>
    1718:	80 93 14 01 	sts	0x0114, r24	; 0x800114 <i1i1iiii11ii>
    171c:	80 91 0b 00 	lds	r24, 0x000B	; 0x80000b <__TEXT_REGION_LENGTH__+0x7f800b>
    1720:	90 91 0c 00 	lds	r25, 0x000C	; 0x80000c <__TEXT_REGION_LENGTH__+0x7f800c>
    1724:	90 93 0d 01 	sts	0x010D, r25	; 0x80010d <ii11i11ii1i1+0x1>
    1728:	80 93 0c 01 	sts	0x010C, r24	; 0x80010c <ii11i11ii1i1>
    172c:	20 91 16 01 	lds	r18, 0x0116	; 0x800116 <i1ii1i11ii1i1>
    1730:	30 91 17 01 	lds	r19, 0x0117	; 0x800117 <i1ii1i11ii1i1+0x1>
    1734:	80 91 16 01 	lds	r24, 0x0116	; 0x800116 <i1ii1i11ii1i1>
    1738:	90 91 17 01 	lds	r25, 0x0117	; 0x800117 <i1ii1i11ii1i1+0x1>
    173c:	28 17       	cp	r18, r24
    173e:	39 07       	cpc	r19, r25
    1740:	49 f0       	breq	.+18     	; 0x1754 <__stack+0xe55>
    1742:	80 91 0a 01 	lds	r24, 0x010A	; 0x80010a <i1i1ii1ii11ii>
    1746:	90 91 0b 01 	lds	r25, 0x010B	; 0x80010b <i1i1ii1ii11ii+0x1>
    174a:	90 93 15 01 	sts	0x0115, r25	; 0x800115 <i1i1iiii11ii+0x1>
    174e:	80 93 14 01 	sts	0x0114, r24	; 0x800114 <i1i1iiii11ii>
    1752:	08 c0       	rjmp	.+16     	; 0x1764 <__stack+0xe65>
    1754:	80 91 0a 01 	lds	r24, 0x010A	; 0x80010a <i1i1ii1ii11ii>
    1758:	90 91 0b 01 	lds	r25, 0x010B	; 0x80010b <i1i1ii1ii11ii+0x1>
    175c:	90 93 0f 01 	sts	0x010F, r25	; 0x80010f <ii1ii1i11ii1i1+0x1>
    1760:	80 93 0e 01 	sts	0x010E, r24	; 0x80010e <ii1ii1i11ii1i1>
    1764:	20 91 12 01 	lds	r18, 0x0112	; 0x800112 <iiii1i1iii1ii>
    1768:	30 91 13 01 	lds	r19, 0x0113	; 0x800113 <iiii1i1iii1ii+0x1>
    176c:	80 91 04 01 	lds	r24, 0x0104	; 0x800104 <iiiii1iii1iii>
    1770:	90 91 05 01 	lds	r25, 0x0105	; 0x800105 <iiiii1iii1iii+0x1>
    1774:	28 17       	cp	r18, r24
    1776:	39 07       	cpc	r19, r25
    1778:	19 f4       	brne	.+6      	; 0x1780 <__stack+0xe81>
    177a:	0e 94 92 01 	call	0x324	; 0x324 <_Z15iii1iii1iii1ii1v>
    177e:	08 c0       	rjmp	.+16     	; 0x1790 <__stack+0xe91>
    1780:	80 91 16 01 	lds	r24, 0x0116	; 0x800116 <i1ii1i11ii1i1>
    1784:	90 91 17 01 	lds	r25, 0x0117	; 0x800117 <i1ii1i11ii1i1+0x1>
    1788:	90 93 15 01 	sts	0x0115, r25	; 0x800115 <i1i1iiii11ii+0x1>
    178c:	80 93 14 01 	sts	0x0114, r24	; 0x800114 <i1i1iiii11ii>
    1790:	20 91 12 01 	lds	r18, 0x0112	; 0x800112 <iiii1i1iii1ii>
    1794:	30 91 13 01 	lds	r19, 0x0113	; 0x800113 <iiii1i1iii1ii+0x1>
    1798:	80 91 12 01 	lds	r24, 0x0112	; 0x800112 <iiii1i1iii1ii>
    179c:	90 91 13 01 	lds	r25, 0x0113	; 0x800113 <iiii1i1iii1ii+0x1>
    17a0:	28 17       	cp	r18, r24
    17a2:	39 07       	cpc	r19, r25
    17a4:	49 f0       	breq	.+18     	; 0x17b8 <__stack+0xeb9>
    17a6:	80 91 18 01 	lds	r24, 0x0118	; 0x800118 <i1i11i11ii1i1>
    17aa:	90 91 19 01 	lds	r25, 0x0119	; 0x800119 <i1i11i11ii1i1+0x1>
    17ae:	90 93 0d 01 	sts	0x010D, r25	; 0x80010d <ii11i11ii1i1+0x1>
    17b2:	80 93 0c 01 	sts	0x010C, r24	; 0x80010c <ii11i11ii1i1>
    17b6:	08 c0       	rjmp	.+16     	; 0x17c8 <__stack+0xec9>
    17b8:	80 91 16 01 	lds	r24, 0x0116	; 0x800116 <i1ii1i11ii1i1>
    17bc:	90 91 17 01 	lds	r25, 0x0117	; 0x800117 <i1ii1i11ii1i1+0x1>
    17c0:	90 93 15 01 	sts	0x0115, r25	; 0x800115 <i1i1iiii11ii+0x1>
    17c4:	80 93 14 01 	sts	0x0114, r24	; 0x800114 <i1i1iiii11ii>
    17c8:	20 91 0a 01 	lds	r18, 0x010A	; 0x80010a <i1i1ii1ii11ii>
    17cc:	30 91 0b 01 	lds	r19, 0x010B	; 0x80010b <i1i1ii1ii11ii+0x1>
    17d0:	80 91 0a 01 	lds	r24, 0x010A	; 0x80010a <i1i1ii1ii11ii>
    17d4:	90 91 0b 01 	lds	r25, 0x010B	; 0x80010b <i1i1ii1ii11ii+0x1>
    17d8:	28 17       	cp	r18, r24
    17da:	39 07       	cpc	r19, r25
    17dc:	19 f0       	breq	.+6      	; 0x17e4 <__stack+0xee5>
    17de:	0e 94 92 01 	call	0x324	; 0x324 <_Z15iii1iii1iii1ii1v>
    17e2:	0e c0       	rjmp	.+28     	; 0x1800 <__stack+0xf01>
    17e4:	80 91 12 01 	lds	r24, 0x0112	; 0x800112 <iiii1i1iii1ii>
    17e8:	90 91 13 01 	lds	r25, 0x0113	; 0x800113 <iiii1i1iii1ii+0x1>
    17ec:	60 91 16 01 	lds	r22, 0x0116	; 0x800116 <i1ii1i11ii1i1>
    17f0:	70 91 17 01 	lds	r23, 0x0117	; 0x800117 <i1ii1i11ii1i1+0x1>
    17f4:	0e 94 a3 10 	call	0x2146	; 0x2146 <__divmodhi4>
    17f8:	90 93 0d 01 	sts	0x010D, r25	; 0x80010d <ii11i11ii1i1+0x1>
    17fc:	80 93 0c 01 	sts	0x010C, r24	; 0x80010c <ii11i11ii1i1>
    1800:	80 91 09 00 	lds	r24, 0x0009	; 0x800009 <__TEXT_REGION_LENGTH__+0x7f8009>
    1804:	90 91 0a 00 	lds	r25, 0x000A	; 0x80000a <__TEXT_REGION_LENGTH__+0x7f800a>
    1808:	90 93 15 01 	sts	0x0115, r25	; 0x800115 <i1i1iiii11ii+0x1>
    180c:	80 93 14 01 	sts	0x0114, r24	; 0x800114 <i1i1iiii11ii>
    1810:	20 91 10 01 	lds	r18, 0x0110	; 0x800110 <i1ii1i1iii1ii>
    1814:	30 91 11 01 	lds	r19, 0x0111	; 0x800111 <i1ii1i1iii1ii+0x1>
    1818:	80 91 10 01 	lds	r24, 0x0110	; 0x800110 <i1ii1i1iii1ii>
    181c:	90 91 11 01 	lds	r25, 0x0111	; 0x800111 <i1ii1i1iii1ii+0x1>
    1820:	28 17       	cp	r18, r24
    1822:	39 07       	cpc	r19, r25
    1824:	19 f0       	breq	.+6      	; 0x182c <__stack+0xf2d>
    1826:	0e 94 92 01 	call	0x324	; 0x324 <_Z15iii1iii1iii1ii1v>
    182a:	08 c0       	rjmp	.+16     	; 0x183c <__stack+0xf3d>
    182c:	80 91 0a 01 	lds	r24, 0x010A	; 0x80010a <i1i1ii1ii11ii>
    1830:	90 91 0b 01 	lds	r25, 0x010B	; 0x80010b <i1i1ii1ii11ii+0x1>
    1834:	90 93 0f 01 	sts	0x010F, r25	; 0x80010f <ii1ii1i11ii1i1+0x1>
    1838:	80 93 0e 01 	sts	0x010E, r24	; 0x80010e <ii1ii1i11ii1i1>
    183c:	20 91 16 01 	lds	r18, 0x0116	; 0x800116 <i1ii1i11ii1i1>
    1840:	30 91 17 01 	lds	r19, 0x0117	; 0x800117 <i1ii1i11ii1i1+0x1>
    1844:	80 91 18 01 	lds	r24, 0x0118	; 0x800118 <i1i11i11ii1i1>
    1848:	90 91 19 01 	lds	r25, 0x0119	; 0x800119 <i1i11i11ii1i1+0x1>
    184c:	28 17       	cp	r18, r24
    184e:	39 07       	cpc	r19, r25
    1850:	49 f4       	brne	.+18     	; 0x1864 <__stack+0xf65>
    1852:	80 91 16 01 	lds	r24, 0x0116	; 0x800116 <i1ii1i11ii1i1>
    1856:	90 91 17 01 	lds	r25, 0x0117	; 0x800117 <i1ii1i11ii1i1+0x1>
    185a:	90 93 15 01 	sts	0x0115, r25	; 0x800115 <i1i1iiii11ii+0x1>
    185e:	80 93 14 01 	sts	0x0114, r24	; 0x800114 <i1i1iiii11ii>
    1862:	08 c0       	rjmp	.+16     	; 0x1874 <__stack+0xf75>
    1864:	80 91 0a 01 	lds	r24, 0x010A	; 0x80010a <i1i1ii1ii11ii>
    1868:	90 91 0b 01 	lds	r25, 0x010B	; 0x80010b <i1i1ii1ii11ii+0x1>
    186c:	90 93 0f 01 	sts	0x010F, r25	; 0x80010f <ii1ii1i11ii1i1+0x1>
    1870:	80 93 0e 01 	sts	0x010E, r24	; 0x80010e <ii1ii1i11ii1i1>
    1874:	20 91 18 01 	lds	r18, 0x0118	; 0x800118 <i1i11i11ii1i1>
    1878:	30 91 19 01 	lds	r19, 0x0119	; 0x800119 <i1i11i11ii1i1+0x1>
    187c:	80 91 18 01 	lds	r24, 0x0118	; 0x800118 <i1i11i11ii1i1>
    1880:	90 91 19 01 	lds	r25, 0x0119	; 0x800119 <i1i11i11ii1i1+0x1>
    1884:	28 17       	cp	r18, r24
    1886:	39 07       	cpc	r19, r25
    1888:	19 f0       	breq	.+6      	; 0x1890 <__stack+0xf91>
    188a:	0e 94 92 01 	call	0x324	; 0x324 <_Z15iii1iii1iii1ii1v>
    188e:	08 c0       	rjmp	.+16     	; 0x18a0 <__stack+0xfa1>
    1890:	80 91 0a 01 	lds	r24, 0x010A	; 0x80010a <i1i1ii1ii11ii>
    1894:	90 91 0b 01 	lds	r25, 0x010B	; 0x80010b <i1i1ii1ii11ii+0x1>
    1898:	90 93 0f 01 	sts	0x010F, r25	; 0x80010f <ii1ii1i11ii1i1+0x1>
    189c:	80 93 0e 01 	sts	0x010E, r24	; 0x80010e <ii1ii1i11ii1i1>
    18a0:	20 91 18 01 	lds	r18, 0x0118	; 0x800118 <i1i11i11ii1i1>
    18a4:	30 91 19 01 	lds	r19, 0x0119	; 0x800119 <i1i11i11ii1i1+0x1>
    18a8:	80 91 0a 01 	lds	r24, 0x010A	; 0x80010a <i1i1ii1ii11ii>
    18ac:	90 91 0b 01 	lds	r25, 0x010B	; 0x80010b <i1i1ii1ii11ii+0x1>
    18b0:	28 17       	cp	r18, r24
    18b2:	39 07       	cpc	r19, r25
    18b4:	79 f4       	brne	.+30     	; 0x18d4 <__stack+0xfd5>
    18b6:	20 91 14 01 	lds	r18, 0x0114	; 0x800114 <i1i1iiii11ii>
    18ba:	30 91 15 01 	lds	r19, 0x0115	; 0x800115 <i1i1iiii11ii+0x1>
    18be:	80 91 06 01 	lds	r24, 0x0106	; 0x800106 <iiii11111iii11ii>
    18c2:	90 91 07 01 	lds	r25, 0x0107	; 0x800107 <iiii11111iii11ii+0x1>
    18c6:	82 0f       	add	r24, r18
    18c8:	93 1f       	adc	r25, r19
    18ca:	90 93 0f 01 	sts	0x010F, r25	; 0x80010f <ii1ii1i11ii1i1+0x1>
    18ce:	80 93 0e 01 	sts	0x010E, r24	; 0x80010e <ii1ii1i11ii1i1>
    18d2:	08 c0       	rjmp	.+16     	; 0x18e4 <__stack+0xfe5>
    18d4:	80 91 16 01 	lds	r24, 0x0116	; 0x800116 <i1ii1i11ii1i1>
    18d8:	90 91 17 01 	lds	r25, 0x0117	; 0x800117 <i1ii1i11ii1i1+0x1>
    18dc:	90 93 15 01 	sts	0x0115, r25	; 0x800115 <i1i1iiii11ii+0x1>
    18e0:	80 93 14 01 	sts	0x0114, r24	; 0x800114 <i1i1iiii11ii>
    18e4:	20 91 04 01 	lds	r18, 0x0104	; 0x800104 <iiiii1iii1iii>
    18e8:	30 91 05 01 	lds	r19, 0x0105	; 0x800105 <iiiii1iii1iii+0x1>
    18ec:	80 91 04 01 	lds	r24, 0x0104	; 0x800104 <iiiii1iii1iii>
    18f0:	90 91 05 01 	lds	r25, 0x0105	; 0x800105 <iiiii1iii1iii+0x1>
    18f4:	28 17       	cp	r18, r24
    18f6:	39 07       	cpc	r19, r25
    18f8:	19 f0       	breq	.+6      	; 0x1900 <__stack+0x1001>
    18fa:	0e 94 92 01 	call	0x324	; 0x324 <_Z15iii1iii1iii1ii1v>
    18fe:	08 c0       	rjmp	.+16     	; 0x1910 <__stack+0x1011>
    1900:	80 91 16 01 	lds	r24, 0x0116	; 0x800116 <i1ii1i11ii1i1>
    1904:	90 91 17 01 	lds	r25, 0x0117	; 0x800117 <i1ii1i11ii1i1+0x1>
    1908:	90 93 15 01 	sts	0x0115, r25	; 0x800115 <i1i1iiii11ii+0x1>
    190c:	80 93 14 01 	sts	0x0114, r24	; 0x800114 <i1i1iiii11ii>
    1910:	80 91 0b 00 	lds	r24, 0x000B	; 0x80000b <__TEXT_REGION_LENGTH__+0x7f800b>
    1914:	90 91 0c 00 	lds	r25, 0x000C	; 0x80000c <__TEXT_REGION_LENGTH__+0x7f800c>
    1918:	90 93 0d 01 	sts	0x010D, r25	; 0x80010d <ii11i11ii1i1+0x1>
    191c:	80 93 0c 01 	sts	0x010C, r24	; 0x80010c <ii11i11ii1i1>
    1920:	20 91 16 01 	lds	r18, 0x0116	; 0x800116 <i1ii1i11ii1i1>
    1924:	30 91 17 01 	lds	r19, 0x0117	; 0x800117 <i1ii1i11ii1i1+0x1>
    1928:	80 91 16 01 	lds	r24, 0x0116	; 0x800116 <i1ii1i11ii1i1>
    192c:	90 91 17 01 	lds	r25, 0x0117	; 0x800117 <i1ii1i11ii1i1+0x1>
    1930:	28 17       	cp	r18, r24
    1932:	39 07       	cpc	r19, r25
    1934:	49 f0       	breq	.+18     	; 0x1948 <__stack+0x1049>
    1936:	80 91 0a 01 	lds	r24, 0x010A	; 0x80010a <i1i1ii1ii11ii>
    193a:	90 91 0b 01 	lds	r25, 0x010B	; 0x80010b <i1i1ii1ii11ii+0x1>
    193e:	90 93 15 01 	sts	0x0115, r25	; 0x800115 <i1i1iiii11ii+0x1>
    1942:	80 93 14 01 	sts	0x0114, r24	; 0x800114 <i1i1iiii11ii>
    1946:	08 c0       	rjmp	.+16     	; 0x1958 <__stack+0x1059>
    1948:	80 91 0a 01 	lds	r24, 0x010A	; 0x80010a <i1i1ii1ii11ii>
    194c:	90 91 0b 01 	lds	r25, 0x010B	; 0x80010b <i1i1ii1ii11ii+0x1>
    1950:	90 93 0f 01 	sts	0x010F, r25	; 0x80010f <ii1ii1i11ii1i1+0x1>
    1954:	80 93 0e 01 	sts	0x010E, r24	; 0x80010e <ii1ii1i11ii1i1>
    1958:	20 91 12 01 	lds	r18, 0x0112	; 0x800112 <iiii1i1iii1ii>
    195c:	30 91 13 01 	lds	r19, 0x0113	; 0x800113 <iiii1i1iii1ii+0x1>
    1960:	80 91 04 01 	lds	r24, 0x0104	; 0x800104 <iiiii1iii1iii>
    1964:	90 91 05 01 	lds	r25, 0x0105	; 0x800105 <iiiii1iii1iii+0x1>
    1968:	28 17       	cp	r18, r24
    196a:	39 07       	cpc	r19, r25
    196c:	19 f4       	brne	.+6      	; 0x1974 <__stack+0x1075>
    196e:	0e 94 92 01 	call	0x324	; 0x324 <_Z15iii1iii1iii1ii1v>
    1972:	08 c0       	rjmp	.+16     	; 0x1984 <__stack+0x1085>
    1974:	80 91 16 01 	lds	r24, 0x0116	; 0x800116 <i1ii1i11ii1i1>
    1978:	90 91 17 01 	lds	r25, 0x0117	; 0x800117 <i1ii1i11ii1i1+0x1>
    197c:	90 93 15 01 	sts	0x0115, r25	; 0x800115 <i1i1iiii11ii+0x1>
    1980:	80 93 14 01 	sts	0x0114, r24	; 0x800114 <i1i1iiii11ii>
    1984:	20 91 10 01 	lds	r18, 0x0110	; 0x800110 <i1ii1i1iii1ii>
    1988:	30 91 11 01 	lds	r19, 0x0111	; 0x800111 <i1ii1i1iii1ii+0x1>
    198c:	80 91 02 01 	lds	r24, 0x0102	; 0x800102 <i1ii1i1iii11ii>
    1990:	90 91 03 01 	lds	r25, 0x0103	; 0x800103 <i1ii1i1iii11ii+0x1>
    1994:	28 17       	cp	r18, r24
    1996:	39 07       	cpc	r19, r25
    1998:	19 f4       	brne	.+6      	; 0x19a0 <__stack+0x10a1>
    199a:	0e 94 92 01 	call	0x324	; 0x324 <_Z15iii1iii1iii1ii1v>
    199e:	0e c0       	rjmp	.+28     	; 0x19bc <__stack+0x10bd>
    19a0:	80 91 12 01 	lds	r24, 0x0112	; 0x800112 <iiii1i1iii1ii>
    19a4:	90 91 13 01 	lds	r25, 0x0113	; 0x800113 <iiii1i1iii1ii+0x1>
    19a8:	60 91 16 01 	lds	r22, 0x0116	; 0x800116 <i1ii1i11ii1i1>
    19ac:	70 91 17 01 	lds	r23, 0x0117	; 0x800117 <i1ii1i11ii1i1+0x1>
    19b0:	0e 94 a3 10 	call	0x2146	; 0x2146 <__divmodhi4>
    19b4:	90 93 0d 01 	sts	0x010D, r25	; 0x80010d <ii11i11ii1i1+0x1>
    19b8:	80 93 0c 01 	sts	0x010C, r24	; 0x80010c <ii11i11ii1i1>
    19bc:	20 91 12 01 	lds	r18, 0x0112	; 0x800112 <iiii1i1iii1ii>
    19c0:	30 91 13 01 	lds	r19, 0x0113	; 0x800113 <iiii1i1iii1ii+0x1>
    19c4:	80 91 10 01 	lds	r24, 0x0110	; 0x800110 <i1ii1i1iii1ii>
    19c8:	90 91 11 01 	lds	r25, 0x0111	; 0x800111 <i1ii1i1iii1ii+0x1>
    19cc:	28 17       	cp	r18, r24
    19ce:	39 07       	cpc	r19, r25
    19d0:	19 f4       	brne	.+6      	; 0x19d8 <__stack+0x10d9>
    19d2:	0e 94 92 01 	call	0x324	; 0x324 <_Z15iii1iii1iii1ii1v>
    19d6:	08 c0       	rjmp	.+16     	; 0x19e8 <__stack+0x10e9>
    19d8:	80 91 0a 01 	lds	r24, 0x010A	; 0x80010a <i1i1ii1ii11ii>
    19dc:	90 91 0b 01 	lds	r25, 0x010B	; 0x80010b <i1i1ii1ii11ii+0x1>
    19e0:	90 93 0f 01 	sts	0x010F, r25	; 0x80010f <ii1ii1i11ii1i1+0x1>
    19e4:	80 93 0e 01 	sts	0x010E, r24	; 0x80010e <ii1ii1i11ii1i1>
    19e8:	20 91 16 01 	lds	r18, 0x0116	; 0x800116 <i1ii1i11ii1i1>
    19ec:	30 91 17 01 	lds	r19, 0x0117	; 0x800117 <i1ii1i11ii1i1+0x1>
    19f0:	80 91 0a 01 	lds	r24, 0x010A	; 0x80010a <i1i1ii1ii11ii>
    19f4:	90 91 0b 01 	lds	r25, 0x010B	; 0x80010b <i1i1ii1ii11ii+0x1>
    19f8:	28 17       	cp	r18, r24
    19fa:	39 07       	cpc	r19, r25
    19fc:	49 f4       	brne	.+18     	; 0x1a10 <__stack+0x1111>
    19fe:	80 91 06 01 	lds	r24, 0x0106	; 0x800106 <iiii11111iii11ii>
    1a02:	90 91 07 01 	lds	r25, 0x0107	; 0x800107 <iiii11111iii11ii+0x1>
    1a06:	90 93 0f 01 	sts	0x010F, r25	; 0x80010f <ii1ii1i11ii1i1+0x1>
    1a0a:	80 93 0e 01 	sts	0x010E, r24	; 0x80010e <ii1ii1i11ii1i1>
    1a0e:	08 c0       	rjmp	.+16     	; 0x1a20 <__stack+0x1121>
    1a10:	80 91 16 01 	lds	r24, 0x0116	; 0x800116 <i1ii1i11ii1i1>
    1a14:	90 91 17 01 	lds	r25, 0x0117	; 0x800117 <i1ii1i11ii1i1+0x1>
    1a18:	90 93 15 01 	sts	0x0115, r25	; 0x800115 <i1i1iiii11ii+0x1>
    1a1c:	80 93 14 01 	sts	0x0114, r24	; 0x800114 <i1i1iiii11ii>
    1a20:	20 91 14 01 	lds	r18, 0x0114	; 0x800114 <i1i1iiii11ii>
    1a24:	30 91 15 01 	lds	r19, 0x0115	; 0x800115 <i1i1iiii11ii+0x1>
    1a28:	80 91 0e 01 	lds	r24, 0x010E	; 0x80010e <ii1ii1i11ii1i1>
    1a2c:	90 91 0f 01 	lds	r25, 0x010F	; 0x80010f <ii1ii1i11ii1i1+0x1>
    1a30:	82 0f       	add	r24, r18
    1a32:	93 1f       	adc	r25, r19
    1a34:	90 93 0d 01 	sts	0x010D, r25	; 0x80010d <ii11i11ii1i1+0x1>
    1a38:	80 93 0c 01 	sts	0x010C, r24	; 0x80010c <ii11i11ii1i1>
    1a3c:	20 91 18 01 	lds	r18, 0x0118	; 0x800118 <i1i11i11ii1i1>
    1a40:	30 91 19 01 	lds	r19, 0x0119	; 0x800119 <i1i11i11ii1i1+0x1>
    1a44:	80 91 18 01 	lds	r24, 0x0118	; 0x800118 <i1i11i11ii1i1>
    1a48:	90 91 19 01 	lds	r25, 0x0119	; 0x800119 <i1i11i11ii1i1+0x1>
    1a4c:	28 17       	cp	r18, r24
    1a4e:	39 07       	cpc	r19, r25
    1a50:	49 f0       	breq	.+18     	; 0x1a64 <__stack+0x1165>
    1a52:	80 91 0c 01 	lds	r24, 0x010C	; 0x80010c <ii11i11ii1i1>
    1a56:	90 91 0d 01 	lds	r25, 0x010D	; 0x80010d <ii11i11ii1i1+0x1>
    1a5a:	90 93 0f 01 	sts	0x010F, r25	; 0x80010f <ii1ii1i11ii1i1+0x1>
    1a5e:	80 93 0e 01 	sts	0x010E, r24	; 0x80010e <ii1ii1i11ii1i1>
    1a62:	0e c0       	rjmp	.+28     	; 0x1a80 <__stack+0x1181>
    1a64:	80 91 12 01 	lds	r24, 0x0112	; 0x800112 <iiii1i1iii1ii>
    1a68:	90 91 13 01 	lds	r25, 0x0113	; 0x800113 <iiii1i1iii1ii+0x1>
    1a6c:	60 91 16 01 	lds	r22, 0x0116	; 0x800116 <i1ii1i11ii1i1>
    1a70:	70 91 17 01 	lds	r23, 0x0117	; 0x800117 <i1ii1i11ii1i1+0x1>
    1a74:	0e 94 a3 10 	call	0x2146	; 0x2146 <__divmodhi4>
    1a78:	90 93 0d 01 	sts	0x010D, r25	; 0x80010d <ii11i11ii1i1+0x1>
    1a7c:	80 93 0c 01 	sts	0x010C, r24	; 0x80010c <ii11i11ii1i1>
    1a80:	20 91 08 01 	lds	r18, 0x0108	; 0x800108 <i1ii1iii1iii>
    1a84:	30 91 09 01 	lds	r19, 0x0109	; 0x800109 <i1ii1iii1iii+0x1>
    1a88:	80 91 10 01 	lds	r24, 0x0110	; 0x800110 <i1ii1i1iii1ii>
    1a8c:	90 91 11 01 	lds	r25, 0x0111	; 0x800111 <i1ii1i1iii1ii+0x1>
    1a90:	28 17       	cp	r18, r24
    1a92:	39 07       	cpc	r19, r25
    1a94:	19 f4       	brne	.+6      	; 0x1a9c <__stack+0x119d>
    1a96:	0e 94 92 01 	call	0x324	; 0x324 <_Z15iii1iii1iii1ii1v>
    1a9a:	08 c0       	rjmp	.+16     	; 0x1aac <__stack+0x11ad>
    1a9c:	80 91 0a 01 	lds	r24, 0x010A	; 0x80010a <i1i1ii1ii11ii>
    1aa0:	90 91 0b 01 	lds	r25, 0x010B	; 0x80010b <i1i1ii1ii11ii+0x1>
    1aa4:	90 93 0f 01 	sts	0x010F, r25	; 0x80010f <ii1ii1i11ii1i1+0x1>
    1aa8:	80 93 0e 01 	sts	0x010E, r24	; 0x80010e <ii1ii1i11ii1i1>
    1aac:	20 91 04 01 	lds	r18, 0x0104	; 0x800104 <iiiii1iii1iii>
    1ab0:	30 91 05 01 	lds	r19, 0x0105	; 0x800105 <iiiii1iii1iii+0x1>
    1ab4:	80 91 08 01 	lds	r24, 0x0108	; 0x800108 <i1ii1iii1iii>
    1ab8:	90 91 09 01 	lds	r25, 0x0109	; 0x800109 <i1ii1iii1iii+0x1>
    1abc:	28 17       	cp	r18, r24
    1abe:	39 07       	cpc	r19, r25
    1ac0:	19 f0       	breq	.+6      	; 0x1ac8 <__stack+0x11c9>
    1ac2:	0e 94 92 01 	call	0x324	; 0x324 <_Z15iii1iii1iii1ii1v>
    1ac6:	08 c0       	rjmp	.+16     	; 0x1ad8 <__stack+0x11d9>
    1ac8:	80 91 0a 01 	lds	r24, 0x010A	; 0x80010a <i1i1ii1ii11ii>
    1acc:	90 91 0b 01 	lds	r25, 0x010B	; 0x80010b <i1i1ii1ii11ii+0x1>
    1ad0:	90 93 0f 01 	sts	0x010F, r25	; 0x80010f <ii1ii1i11ii1i1+0x1>
    1ad4:	80 93 0e 01 	sts	0x010E, r24	; 0x80010e <ii1ii1i11ii1i1>
    1ad8:	20 91 10 01 	lds	r18, 0x0110	; 0x800110 <i1ii1i1iii1ii>
    1adc:	30 91 11 01 	lds	r19, 0x0111	; 0x800111 <i1ii1i1iii1ii+0x1>
    1ae0:	80 91 02 01 	lds	r24, 0x0102	; 0x800102 <i1ii1i1iii11ii>
    1ae4:	90 91 03 01 	lds	r25, 0x0103	; 0x800103 <i1ii1i1iii11ii+0x1>
    1ae8:	28 17       	cp	r18, r24
    1aea:	39 07       	cpc	r19, r25
    1aec:	49 f0       	breq	.+18     	; 0x1b00 <__stack+0x1201>
    1aee:	80 91 02 01 	lds	r24, 0x0102	; 0x800102 <i1ii1i1iii11ii>
    1af2:	90 91 03 01 	lds	r25, 0x0103	; 0x800103 <i1ii1i1iii11ii+0x1>
    1af6:	90 93 11 01 	sts	0x0111, r25	; 0x800111 <i1ii1i1iii1ii+0x1>
    1afa:	80 93 10 01 	sts	0x0110, r24	; 0x800110 <i1ii1i1iii1ii>
    1afe:	08 c0       	rjmp	.+16     	; 0x1b10 <__stack+0x1211>
    1b00:	80 91 16 01 	lds	r24, 0x0116	; 0x800116 <i1ii1i11ii1i1>
    1b04:	90 91 17 01 	lds	r25, 0x0117	; 0x800117 <i1ii1i11ii1i1+0x1>
    1b08:	90 93 15 01 	sts	0x0115, r25	; 0x800115 <i1i1iiii11ii+0x1>
    1b0c:	80 93 14 01 	sts	0x0114, r24	; 0x800114 <i1i1iiii11ii>
    1b10:	20 91 12 01 	lds	r18, 0x0112	; 0x800112 <iiii1i1iii1ii>
    1b14:	30 91 13 01 	lds	r19, 0x0113	; 0x800113 <iiii1i1iii1ii+0x1>
    1b18:	80 91 12 01 	lds	r24, 0x0112	; 0x800112 <iiii1i1iii1ii>
    1b1c:	90 91 13 01 	lds	r25, 0x0113	; 0x800113 <iiii1i1iii1ii+0x1>
    1b20:	28 17       	cp	r18, r24
    1b22:	39 07       	cpc	r19, r25
    1b24:	49 f0       	breq	.+18     	; 0x1b38 <__stack+0x1239>
    1b26:	80 91 18 01 	lds	r24, 0x0118	; 0x800118 <i1i11i11ii1i1>
    1b2a:	90 91 19 01 	lds	r25, 0x0119	; 0x800119 <i1i11i11ii1i1+0x1>
    1b2e:	90 93 0d 01 	sts	0x010D, r25	; 0x80010d <ii11i11ii1i1+0x1>
    1b32:	80 93 0c 01 	sts	0x010C, r24	; 0x80010c <ii11i11ii1i1>
    1b36:	08 c0       	rjmp	.+16     	; 0x1b48 <__stack+0x1249>
    1b38:	80 91 16 01 	lds	r24, 0x0116	; 0x800116 <i1ii1i11ii1i1>
    1b3c:	90 91 17 01 	lds	r25, 0x0117	; 0x800117 <i1ii1i11ii1i1+0x1>
    1b40:	90 93 15 01 	sts	0x0115, r25	; 0x800115 <i1i1iiii11ii+0x1>
    1b44:	80 93 14 01 	sts	0x0114, r24	; 0x800114 <i1i1iiii11ii>
    1b48:	20 91 0a 01 	lds	r18, 0x010A	; 0x80010a <i1i1ii1ii11ii>
    1b4c:	30 91 0b 01 	lds	r19, 0x010B	; 0x80010b <i1i1ii1ii11ii+0x1>
    1b50:	80 91 0a 01 	lds	r24, 0x010A	; 0x80010a <i1i1ii1ii11ii>
    1b54:	90 91 0b 01 	lds	r25, 0x010B	; 0x80010b <i1i1ii1ii11ii+0x1>
    1b58:	28 17       	cp	r18, r24
    1b5a:	39 07       	cpc	r19, r25
    1b5c:	19 f0       	breq	.+6      	; 0x1b64 <__stack+0x1265>
    1b5e:	0e 94 92 01 	call	0x324	; 0x324 <_Z15iii1iii1iii1ii1v>
    1b62:	0e c0       	rjmp	.+28     	; 0x1b80 <__stack+0x1281>
    1b64:	80 91 12 01 	lds	r24, 0x0112	; 0x800112 <iiii1i1iii1ii>
    1b68:	90 91 13 01 	lds	r25, 0x0113	; 0x800113 <iiii1i1iii1ii+0x1>
    1b6c:	60 91 16 01 	lds	r22, 0x0116	; 0x800116 <i1ii1i11ii1i1>
    1b70:	70 91 17 01 	lds	r23, 0x0117	; 0x800117 <i1ii1i11ii1i1+0x1>
    1b74:	0e 94 a3 10 	call	0x2146	; 0x2146 <__divmodhi4>
    1b78:	90 93 0d 01 	sts	0x010D, r25	; 0x80010d <ii11i11ii1i1+0x1>
    1b7c:	80 93 0c 01 	sts	0x010C, r24	; 0x80010c <ii11i11ii1i1>
    1b80:	80 91 09 00 	lds	r24, 0x0009	; 0x800009 <__TEXT_REGION_LENGTH__+0x7f8009>
    1b84:	90 91 0a 00 	lds	r25, 0x000A	; 0x80000a <__TEXT_REGION_LENGTH__+0x7f800a>
    1b88:	90 93 15 01 	sts	0x0115, r25	; 0x800115 <i1i1iiii11ii+0x1>
    1b8c:	80 93 14 01 	sts	0x0114, r24	; 0x800114 <i1i1iiii11ii>
    1b90:	20 91 10 01 	lds	r18, 0x0110	; 0x800110 <i1ii1i1iii1ii>
    1b94:	30 91 11 01 	lds	r19, 0x0111	; 0x800111 <i1ii1i1iii1ii+0x1>
    1b98:	80 91 10 01 	lds	r24, 0x0110	; 0x800110 <i1ii1i1iii1ii>
    1b9c:	90 91 11 01 	lds	r25, 0x0111	; 0x800111 <i1ii1i1iii1ii+0x1>
    1ba0:	28 17       	cp	r18, r24
    1ba2:	39 07       	cpc	r19, r25
    1ba4:	19 f0       	breq	.+6      	; 0x1bac <__stack+0x12ad>
    1ba6:	0e 94 92 01 	call	0x324	; 0x324 <_Z15iii1iii1iii1ii1v>
    1baa:	08 c0       	rjmp	.+16     	; 0x1bbc <__stack+0x12bd>
    1bac:	80 91 0a 01 	lds	r24, 0x010A	; 0x80010a <i1i1ii1ii11ii>
    1bb0:	90 91 0b 01 	lds	r25, 0x010B	; 0x80010b <i1i1ii1ii11ii+0x1>
    1bb4:	90 93 0f 01 	sts	0x010F, r25	; 0x80010f <ii1ii1i11ii1i1+0x1>
    1bb8:	80 93 0e 01 	sts	0x010E, r24	; 0x80010e <ii1ii1i11ii1i1>
    1bbc:	20 91 16 01 	lds	r18, 0x0116	; 0x800116 <i1ii1i11ii1i1>
    1bc0:	30 91 17 01 	lds	r19, 0x0117	; 0x800117 <i1ii1i11ii1i1+0x1>
    1bc4:	80 91 18 01 	lds	r24, 0x0118	; 0x800118 <i1i11i11ii1i1>
    1bc8:	90 91 19 01 	lds	r25, 0x0119	; 0x800119 <i1i11i11ii1i1+0x1>
    1bcc:	28 17       	cp	r18, r24
    1bce:	39 07       	cpc	r19, r25
    1bd0:	49 f4       	brne	.+18     	; 0x1be4 <__stack+0x12e5>
    1bd2:	80 91 16 01 	lds	r24, 0x0116	; 0x800116 <i1ii1i11ii1i1>
    1bd6:	90 91 17 01 	lds	r25, 0x0117	; 0x800117 <i1ii1i11ii1i1+0x1>
    1bda:	90 93 15 01 	sts	0x0115, r25	; 0x800115 <i1i1iiii11ii+0x1>
    1bde:	80 93 14 01 	sts	0x0114, r24	; 0x800114 <i1i1iiii11ii>
    1be2:	08 c0       	rjmp	.+16     	; 0x1bf4 <__stack+0x12f5>
    1be4:	80 91 0a 01 	lds	r24, 0x010A	; 0x80010a <i1i1ii1ii11ii>
    1be8:	90 91 0b 01 	lds	r25, 0x010B	; 0x80010b <i1i1ii1ii11ii+0x1>
    1bec:	90 93 0f 01 	sts	0x010F, r25	; 0x80010f <ii1ii1i11ii1i1+0x1>
    1bf0:	80 93 0e 01 	sts	0x010E, r24	; 0x80010e <ii1ii1i11ii1i1>
    1bf4:	20 91 18 01 	lds	r18, 0x0118	; 0x800118 <i1i11i11ii1i1>
    1bf8:	30 91 19 01 	lds	r19, 0x0119	; 0x800119 <i1i11i11ii1i1+0x1>
    1bfc:	80 91 16 01 	lds	r24, 0x0116	; 0x800116 <i1ii1i11ii1i1>
    1c00:	90 91 17 01 	lds	r25, 0x0117	; 0x800117 <i1ii1i11ii1i1+0x1>
    1c04:	28 17       	cp	r18, r24
    1c06:	39 07       	cpc	r19, r25
    1c08:	19 f4       	brne	.+6      	; 0x1c10 <__stack+0x1311>
    1c0a:	0e 94 92 01 	call	0x324	; 0x324 <_Z15iii1iii1iii1ii1v>
    1c0e:	08 c0       	rjmp	.+16     	; 0x1c20 <__stack+0x1321>
    1c10:	80 91 16 01 	lds	r24, 0x0116	; 0x800116 <i1ii1i11ii1i1>
    1c14:	90 91 17 01 	lds	r25, 0x0117	; 0x800117 <i1ii1i11ii1i1+0x1>
    1c18:	90 93 15 01 	sts	0x0115, r25	; 0x800115 <i1i1iiii11ii+0x1>
    1c1c:	80 93 14 01 	sts	0x0114, r24	; 0x800114 <i1i1iiii11ii>
    1c20:	20 91 12 01 	lds	r18, 0x0112	; 0x800112 <iiii1i1iii1ii>
    1c24:	30 91 13 01 	lds	r19, 0x0113	; 0x800113 <iiii1i1iii1ii+0x1>
    1c28:	80 91 10 01 	lds	r24, 0x0110	; 0x800110 <i1ii1i1iii1ii>
    1c2c:	90 91 11 01 	lds	r25, 0x0111	; 0x800111 <i1ii1i1iii1ii+0x1>
    1c30:	28 17       	cp	r18, r24
    1c32:	39 07       	cpc	r19, r25
    1c34:	49 f4       	brne	.+18     	; 0x1c48 <__stack+0x1349>
    1c36:	80 91 18 01 	lds	r24, 0x0118	; 0x800118 <i1i11i11ii1i1>
    1c3a:	90 91 19 01 	lds	r25, 0x0119	; 0x800119 <i1i11i11ii1i1+0x1>
    1c3e:	90 93 0f 01 	sts	0x010F, r25	; 0x80010f <ii1ii1i11ii1i1+0x1>
    1c42:	80 93 0e 01 	sts	0x010E, r24	; 0x80010e <ii1ii1i11ii1i1>
    1c46:	0e c0       	rjmp	.+28     	; 0x1c64 <__stack+0x1365>
    1c48:	80 91 12 01 	lds	r24, 0x0112	; 0x800112 <iiii1i1iii1ii>
    1c4c:	90 91 13 01 	lds	r25, 0x0113	; 0x800113 <iiii1i1iii1ii+0x1>
    1c50:	60 91 16 01 	lds	r22, 0x0116	; 0x800116 <i1ii1i11ii1i1>
    1c54:	70 91 17 01 	lds	r23, 0x0117	; 0x800117 <i1ii1i11ii1i1+0x1>
    1c58:	0e 94 a3 10 	call	0x2146	; 0x2146 <__divmodhi4>
    1c5c:	90 93 0d 01 	sts	0x010D, r25	; 0x80010d <ii11i11ii1i1+0x1>
    1c60:	80 93 0c 01 	sts	0x010C, r24	; 0x80010c <ii11i11ii1i1>
    1c64:	20 91 16 01 	lds	r18, 0x0116	; 0x800116 <i1ii1i11ii1i1>
    1c68:	30 91 17 01 	lds	r19, 0x0117	; 0x800117 <i1ii1i11ii1i1+0x1>
    1c6c:	80 91 16 01 	lds	r24, 0x0116	; 0x800116 <i1ii1i11ii1i1>
    1c70:	90 91 17 01 	lds	r25, 0x0117	; 0x800117 <i1ii1i11ii1i1+0x1>
    1c74:	28 17       	cp	r18, r24
    1c76:	39 07       	cpc	r19, r25
    1c78:	19 f0       	breq	.+6      	; 0x1c80 <__stack+0x1381>
    1c7a:	0e 94 92 01 	call	0x324	; 0x324 <_Z15iii1iii1iii1ii1v>
    1c7e:	08 c0       	rjmp	.+16     	; 0x1c90 <__stack+0x1391>
    1c80:	80 91 0a 01 	lds	r24, 0x010A	; 0x80010a <i1i1ii1ii11ii>
    1c84:	90 91 0b 01 	lds	r25, 0x010B	; 0x80010b <i1i1ii1ii11ii+0x1>
    1c88:	90 93 0f 01 	sts	0x010F, r25	; 0x80010f <ii1ii1i11ii1i1+0x1>
    1c8c:	80 93 0e 01 	sts	0x010E, r24	; 0x80010e <ii1ii1i11ii1i1>
    1c90:	80 91 0a 01 	lds	r24, 0x010A	; 0x80010a <i1i1ii1ii11ii>
    1c94:	90 91 0b 01 	lds	r25, 0x010B	; 0x80010b <i1i1ii1ii11ii+0x1>
    1c98:	60 91 18 01 	lds	r22, 0x0118	; 0x800118 <i1i11i11ii1i1>
    1c9c:	70 91 19 01 	lds	r23, 0x0119	; 0x800119 <i1i11i11ii1i1+0x1>
    1ca0:	0e 94 a3 10 	call	0x2146	; 0x2146 <__divmodhi4>
    1ca4:	90 93 0d 01 	sts	0x010D, r25	; 0x80010d <ii11i11ii1i1+0x1>
    1ca8:	80 93 0c 01 	sts	0x010C, r24	; 0x80010c <ii11i11ii1i1>
    1cac:	20 91 08 01 	lds	r18, 0x0108	; 0x800108 <i1ii1iii1iii>
    1cb0:	30 91 09 01 	lds	r19, 0x0109	; 0x800109 <i1ii1iii1iii+0x1>
    1cb4:	80 91 08 01 	lds	r24, 0x0108	; 0x800108 <i1ii1iii1iii>
    1cb8:	90 91 09 01 	lds	r25, 0x0109	; 0x800109 <i1ii1iii1iii+0x1>
    1cbc:	28 17       	cp	r18, r24
    1cbe:	39 07       	cpc	r19, r25
    1cc0:	19 f0       	breq	.+6      	; 0x1cc8 <__stack+0x13c9>
    1cc2:	0e 94 92 01 	call	0x324	; 0x324 <_Z15iii1iii1iii1ii1v>
    1cc6:	08 c0       	rjmp	.+16     	; 0x1cd8 <__stack+0x13d9>
    1cc8:	80 91 16 01 	lds	r24, 0x0116	; 0x800116 <i1ii1i11ii1i1>
    1ccc:	90 91 17 01 	lds	r25, 0x0117	; 0x800117 <i1ii1i11ii1i1+0x1>
    1cd0:	90 93 15 01 	sts	0x0115, r25	; 0x800115 <i1i1iiii11ii+0x1>
    1cd4:	80 93 14 01 	sts	0x0114, r24	; 0x800114 <i1i1iiii11ii>
    1cd8:	20 91 12 01 	lds	r18, 0x0112	; 0x800112 <iiii1i1iii1ii>
    1cdc:	30 91 13 01 	lds	r19, 0x0113	; 0x800113 <iiii1i1iii1ii+0x1>
    1ce0:	80 91 00 01 	lds	r24, 0x0100	; 0x800100 <__DATA_REGION_ORIGIN__>
    1ce4:	90 91 01 01 	lds	r25, 0x0101	; 0x800101 <__DATA_REGION_ORIGIN__+0x1>
    1ce8:	28 17       	cp	r18, r24
    1cea:	39 07       	cpc	r19, r25
    1cec:	19 f0       	breq	.+6      	; 0x1cf4 <__stack+0x13f5>
    1cee:	0e 94 92 01 	call	0x324	; 0x324 <_Z15iii1iii1iii1ii1v>
    1cf2:	08 c0       	rjmp	.+16     	; 0x1d04 <__stack+0x1405>
    1cf4:	80 91 16 01 	lds	r24, 0x0116	; 0x800116 <i1ii1i11ii1i1>
    1cf8:	90 91 17 01 	lds	r25, 0x0117	; 0x800117 <i1ii1i11ii1i1+0x1>
    1cfc:	90 93 15 01 	sts	0x0115, r25	; 0x800115 <i1i1iiii11ii+0x1>
    1d00:	80 93 14 01 	sts	0x0114, r24	; 0x800114 <i1i1iiii11ii>
    1d04:	8d e6       	ldi	r24, 0x6D	; 109
    1d06:	0e 94 ac 01 	call	0x358	; 0x358 <_Z6setMemc>
    1d0a:	83 e7       	ldi	r24, 0x73	; 115
    1d0c:	0e 94 ac 01 	call	0x358	; 0x358 <_Z6setMemc>
    1d10:	8e e3       	ldi	r24, 0x3E	; 62
    1d12:	91 e0       	ldi	r25, 0x01	; 1
    1d14:	0e 94 3e 03 	call	0x67c	; 0x67c <_ZN5Print7printlnEPKc.constprop.6>
    1d18:	97 ec       	ldi	r25, 0xC7	; 199
    1d1a:	89 2e       	mov	r8, r25
    1d1c:	9b e6       	ldi	r25, 0x6B	; 107
    1d1e:	99 2e       	mov	r9, r25
    1d20:	9f e9       	ldi	r25, 0x9F	; 159
    1d22:	a9 2e       	mov	r10, r25
    1d24:	96 e0       	ldi	r25, 0x06	; 6
    1d26:	b9 2e       	mov	r11, r25
    1d28:	c1 2c       	mov	r12, r1
    1d2a:	d1 2c       	mov	r13, r1
    1d2c:	76 01       	movw	r14, r12
    1d2e:	c3 94       	inc	r12
    1d30:	20 91 18 01 	lds	r18, 0x0118	; 0x800118 <i1i11i11ii1i1>
    1d34:	30 91 19 01 	lds	r19, 0x0119	; 0x800119 <i1i11i11ii1i1+0x1>
    1d38:	80 91 16 01 	lds	r24, 0x0116	; 0x800116 <i1ii1i11ii1i1>
    1d3c:	90 91 17 01 	lds	r25, 0x0117	; 0x800117 <i1ii1i11ii1i1+0x1>
    1d40:	28 17       	cp	r18, r24
    1d42:	39 07       	cpc	r19, r25
    1d44:	19 f4       	brne	.+6      	; 0x1d4c <__stack+0x144d>
    1d46:	0e 94 92 01 	call	0x324	; 0x324 <_Z15iii1iii1iii1ii1v>
    1d4a:	08 c0       	rjmp	.+16     	; 0x1d5c <__stack+0x145d>
    1d4c:	80 91 16 01 	lds	r24, 0x0116	; 0x800116 <i1ii1i11ii1i1>
    1d50:	90 91 17 01 	lds	r25, 0x0117	; 0x800117 <i1ii1i11ii1i1+0x1>
    1d54:	90 93 15 01 	sts	0x0115, r25	; 0x800115 <i1i1iiii11ii+0x1>
    1d58:	80 93 14 01 	sts	0x0114, r24	; 0x800114 <i1i1iiii11ii>
    1d5c:	20 91 12 01 	lds	r18, 0x0112	; 0x800112 <iiii1i1iii1ii>
    1d60:	30 91 13 01 	lds	r19, 0x0113	; 0x800113 <iiii1i1iii1ii+0x1>
    1d64:	80 91 10 01 	lds	r24, 0x0110	; 0x800110 <i1ii1i1iii1ii>
    1d68:	90 91 11 01 	lds	r25, 0x0111	; 0x800111 <i1ii1i1iii1ii+0x1>
    1d6c:	28 17       	cp	r18, r24
    1d6e:	39 07       	cpc	r19, r25
    1d70:	49 f4       	brne	.+18     	; 0x1d84 <__stack+0x1485>
    1d72:	80 91 18 01 	lds	r24, 0x0118	; 0x800118 <i1i11i11ii1i1>
    1d76:	90 91 19 01 	lds	r25, 0x0119	; 0x800119 <i1i11i11ii1i1+0x1>
    1d7a:	90 93 0f 01 	sts	0x010F, r25	; 0x80010f <ii1ii1i11ii1i1+0x1>
    1d7e:	80 93 0e 01 	sts	0x010E, r24	; 0x80010e <ii1ii1i11ii1i1>
    1d82:	0e c0       	rjmp	.+28     	; 0x1da0 <__stack+0x14a1>
    1d84:	80 91 12 01 	lds	r24, 0x0112	; 0x800112 <iiii1i1iii1ii>
    1d88:	90 91 13 01 	lds	r25, 0x0113	; 0x800113 <iiii1i1iii1ii+0x1>
    1d8c:	60 91 16 01 	lds	r22, 0x0116	; 0x800116 <i1ii1i11ii1i1>
    1d90:	70 91 17 01 	lds	r23, 0x0117	; 0x800117 <i1ii1i11ii1i1+0x1>
    1d94:	0e 94 a3 10 	call	0x2146	; 0x2146 <__divmodhi4>
    1d98:	90 93 0d 01 	sts	0x010D, r25	; 0x80010d <ii11i11ii1i1+0x1>
    1d9c:	80 93 0c 01 	sts	0x010C, r24	; 0x80010c <ii11i11ii1i1>
    1da0:	20 91 16 01 	lds	r18, 0x0116	; 0x800116 <i1ii1i11ii1i1>
    1da4:	30 91 17 01 	lds	r19, 0x0117	; 0x800117 <i1ii1i11ii1i1+0x1>
    1da8:	80 91 16 01 	lds	r24, 0x0116	; 0x800116 <i1ii1i11ii1i1>
    1dac:	90 91 17 01 	lds	r25, 0x0117	; 0x800117 <i1ii1i11ii1i1+0x1>
    1db0:	28 17       	cp	r18, r24
    1db2:	39 07       	cpc	r19, r25
    1db4:	19 f0       	breq	.+6      	; 0x1dbc <__stack+0x14bd>
    1db6:	0e 94 92 01 	call	0x324	; 0x324 <_Z15iii1iii1iii1ii1v>
    1dba:	08 c0       	rjmp	.+16     	; 0x1dcc <__stack+0x14cd>
    1dbc:	80 91 0a 01 	lds	r24, 0x010A	; 0x80010a <i1i1ii1ii11ii>
    1dc0:	90 91 0b 01 	lds	r25, 0x010B	; 0x80010b <i1i1ii1ii11ii+0x1>
    1dc4:	90 93 0f 01 	sts	0x010F, r25	; 0x80010f <ii1ii1i11ii1i1+0x1>
    1dc8:	80 93 0e 01 	sts	0x010E, r24	; 0x80010e <ii1ii1i11ii1i1>
    1dcc:	80 91 0a 01 	lds	r24, 0x010A	; 0x80010a <i1i1ii1ii11ii>
    1dd0:	90 91 0b 01 	lds	r25, 0x010B	; 0x80010b <i1i1ii1ii11ii+0x1>
    1dd4:	60 91 18 01 	lds	r22, 0x0118	; 0x800118 <i1i11i11ii1i1>
    1dd8:	70 91 19 01 	lds	r23, 0x0119	; 0x800119 <i1i11i11ii1i1+0x1>
    1ddc:	0e 94 a3 10 	call	0x2146	; 0x2146 <__divmodhi4>
    1de0:	90 93 0d 01 	sts	0x010D, r25	; 0x80010d <ii11i11ii1i1+0x1>
    1de4:	80 93 0c 01 	sts	0x010C, r24	; 0x80010c <ii11i11ii1i1>
    1de8:	20 91 08 01 	lds	r18, 0x0108	; 0x800108 <i1ii1iii1iii>
    1dec:	30 91 09 01 	lds	r19, 0x0109	; 0x800109 <i1ii1iii1iii+0x1>
    1df0:	80 91 08 01 	lds	r24, 0x0108	; 0x800108 <i1ii1iii1iii>
    1df4:	90 91 09 01 	lds	r25, 0x0109	; 0x800109 <i1ii1iii1iii+0x1>
    1df8:	28 17       	cp	r18, r24
    1dfa:	39 07       	cpc	r19, r25
    1dfc:	19 f0       	breq	.+6      	; 0x1e04 <__stack+0x1505>
    1dfe:	0e 94 92 01 	call	0x324	; 0x324 <_Z15iii1iii1iii1ii1v>
    1e02:	08 c0       	rjmp	.+16     	; 0x1e14 <__stack+0x1515>
    1e04:	80 91 16 01 	lds	r24, 0x0116	; 0x800116 <i1ii1i11ii1i1>
    1e08:	90 91 17 01 	lds	r25, 0x0117	; 0x800117 <i1ii1i11ii1i1+0x1>
    1e0c:	90 93 15 01 	sts	0x0115, r25	; 0x800115 <i1i1iiii11ii+0x1>
    1e10:	80 93 14 01 	sts	0x0114, r24	; 0x800114 <i1i1iiii11ii>
    1e14:	20 91 12 01 	lds	r18, 0x0112	; 0x800112 <iiii1i1iii1ii>
    1e18:	30 91 13 01 	lds	r19, 0x0113	; 0x800113 <iiii1i1iii1ii+0x1>
    1e1c:	80 91 10 01 	lds	r24, 0x0110	; 0x800110 <i1ii1i1iii1ii>
    1e20:	90 91 11 01 	lds	r25, 0x0111	; 0x800111 <i1ii1i1iii1ii+0x1>
    1e24:	28 17       	cp	r18, r24
    1e26:	39 07       	cpc	r19, r25
    1e28:	19 f4       	brne	.+6      	; 0x1e30 <__stack+0x1531>
    1e2a:	0e 94 92 01 	call	0x324	; 0x324 <_Z15iii1iii1iii1ii1v>
    1e2e:	08 c0       	rjmp	.+16     	; 0x1e40 <__stack+0x1541>
    1e30:	80 91 0a 01 	lds	r24, 0x010A	; 0x80010a <i1i1ii1ii11ii>
    1e34:	90 91 0b 01 	lds	r25, 0x010B	; 0x80010b <i1i1ii1ii11ii+0x1>
    1e38:	90 93 0f 01 	sts	0x010F, r25	; 0x80010f <ii1ii1i11ii1i1+0x1>
    1e3c:	80 93 0e 01 	sts	0x010E, r24	; 0x80010e <ii1ii1i11ii1i1>
    1e40:	20 91 16 01 	lds	r18, 0x0116	; 0x800116 <i1ii1i11ii1i1>
    1e44:	30 91 17 01 	lds	r19, 0x0117	; 0x800117 <i1ii1i11ii1i1+0x1>
    1e48:	80 91 0a 01 	lds	r24, 0x010A	; 0x80010a <i1i1ii1ii11ii>
    1e4c:	90 91 0b 01 	lds	r25, 0x010B	; 0x80010b <i1i1ii1ii11ii+0x1>
    1e50:	28 17       	cp	r18, r24
    1e52:	39 07       	cpc	r19, r25
    1e54:	49 f4       	brne	.+18     	; 0x1e68 <__stack+0x1569>
    1e56:	80 91 06 01 	lds	r24, 0x0106	; 0x800106 <iiii11111iii11ii>
    1e5a:	90 91 07 01 	lds	r25, 0x0107	; 0x800107 <iiii11111iii11ii+0x1>
    1e5e:	90 93 0f 01 	sts	0x010F, r25	; 0x80010f <ii1ii1i11ii1i1+0x1>
    1e62:	80 93 0e 01 	sts	0x010E, r24	; 0x80010e <ii1ii1i11ii1i1>
    1e66:	08 c0       	rjmp	.+16     	; 0x1e78 <__stack+0x1579>
    1e68:	80 91 16 01 	lds	r24, 0x0116	; 0x800116 <i1ii1i11ii1i1>
    1e6c:	90 91 17 01 	lds	r25, 0x0117	; 0x800117 <i1ii1i11ii1i1+0x1>
    1e70:	90 93 15 01 	sts	0x0115, r25	; 0x800115 <i1i1iiii11ii+0x1>
    1e74:	80 93 14 01 	sts	0x0114, r24	; 0x800114 <i1i1iiii11ii>
    1e78:	20 91 14 01 	lds	r18, 0x0114	; 0x800114 <i1i1iiii11ii>
    1e7c:	30 91 15 01 	lds	r19, 0x0115	; 0x800115 <i1i1iiii11ii+0x1>
    1e80:	80 91 0e 01 	lds	r24, 0x010E	; 0x80010e <ii1ii1i11ii1i1>
    1e84:	90 91 0f 01 	lds	r25, 0x010F	; 0x80010f <ii1ii1i11ii1i1+0x1>
    1e88:	82 0f       	add	r24, r18
    1e8a:	93 1f       	adc	r25, r19
    1e8c:	90 93 0d 01 	sts	0x010D, r25	; 0x80010d <ii11i11ii1i1+0x1>
    1e90:	80 93 0c 01 	sts	0x010C, r24	; 0x80010c <ii11i11ii1i1>
    1e94:	20 91 18 01 	lds	r18, 0x0118	; 0x800118 <i1i11i11ii1i1>
    1e98:	30 91 19 01 	lds	r19, 0x0119	; 0x800119 <i1i11i11ii1i1+0x1>
    1e9c:	80 91 18 01 	lds	r24, 0x0118	; 0x800118 <i1i11i11ii1i1>
    1ea0:	90 91 19 01 	lds	r25, 0x0119	; 0x800119 <i1i11i11ii1i1+0x1>
    1ea4:	28 17       	cp	r18, r24
    1ea6:	39 07       	cpc	r19, r25
    1ea8:	49 f0       	breq	.+18     	; 0x1ebc <__stack+0x15bd>
    1eaa:	80 91 0c 01 	lds	r24, 0x010C	; 0x80010c <ii11i11ii1i1>
    1eae:	90 91 0d 01 	lds	r25, 0x010D	; 0x80010d <ii11i11ii1i1+0x1>
    1eb2:	90 93 0f 01 	sts	0x010F, r25	; 0x80010f <ii1ii1i11ii1i1+0x1>
    1eb6:	80 93 0e 01 	sts	0x010E, r24	; 0x80010e <ii1ii1i11ii1i1>
    1eba:	0e c0       	rjmp	.+28     	; 0x1ed8 <__stack+0x15d9>
    1ebc:	80 91 12 01 	lds	r24, 0x0112	; 0x800112 <iiii1i1iii1ii>
    1ec0:	90 91 13 01 	lds	r25, 0x0113	; 0x800113 <iiii1i1iii1ii+0x1>
    1ec4:	60 91 16 01 	lds	r22, 0x0116	; 0x800116 <i1ii1i11ii1i1>
    1ec8:	70 91 17 01 	lds	r23, 0x0117	; 0x800117 <i1ii1i11ii1i1+0x1>
    1ecc:	0e 94 a3 10 	call	0x2146	; 0x2146 <__divmodhi4>
    1ed0:	90 93 0d 01 	sts	0x010D, r25	; 0x80010d <ii11i11ii1i1+0x1>
    1ed4:	80 93 0c 01 	sts	0x010C, r24	; 0x80010c <ii11i11ii1i1>
    1ed8:	20 91 08 01 	lds	r18, 0x0108	; 0x800108 <i1ii1iii1iii>
    1edc:	30 91 09 01 	lds	r19, 0x0109	; 0x800109 <i1ii1iii1iii+0x1>
    1ee0:	80 91 10 01 	lds	r24, 0x0110	; 0x800110 <i1ii1i1iii1ii>
    1ee4:	90 91 11 01 	lds	r25, 0x0111	; 0x800111 <i1ii1i1iii1ii+0x1>
    1ee8:	28 17       	cp	r18, r24
    1eea:	39 07       	cpc	r19, r25
    1eec:	19 f4       	brne	.+6      	; 0x1ef4 <__stack+0x15f5>
    1eee:	0e 94 92 01 	call	0x324	; 0x324 <_Z15iii1iii1iii1ii1v>
    1ef2:	08 c0       	rjmp	.+16     	; 0x1f04 <__stack+0x1605>
    1ef4:	80 91 0a 01 	lds	r24, 0x010A	; 0x80010a <i1i1ii1ii11ii>
    1ef8:	90 91 0b 01 	lds	r25, 0x010B	; 0x80010b <i1i1ii1ii11ii+0x1>
    1efc:	90 93 0f 01 	sts	0x010F, r25	; 0x80010f <ii1ii1i11ii1i1+0x1>
    1f00:	80 93 0e 01 	sts	0x010E, r24	; 0x80010e <ii1ii1i11ii1i1>
    1f04:	89 82       	std	Y+1, r8	; 0x01
    1f06:	9a 82       	std	Y+2, r9	; 0x02
    1f08:	ab 82       	std	Y+3, r10	; 0x03
    1f0a:	bc 82       	std	Y+4, r11	; 0x04
    1f0c:	80 91 06 01 	lds	r24, 0x0106	; 0x800106 <iiii11111iii11ii>
    1f10:	90 91 07 01 	lds	r25, 0x0107	; 0x800107 <iiii11111iii11ii+0x1>
    1f14:	99 27       	eor	r25, r25
    1f16:	fc 01       	movw	r30, r24
    1f18:	e6 56       	subi	r30, 0x66	; 102
    1f1a:	ff 4f       	sbci	r31, 0xFF	; 255
    1f1c:	24 91       	lpm	r18, Z
    1f1e:	fc 01       	movw	r30, r24
    1f20:	ea 57       	subi	r30, 0x7A	; 122
    1f22:	ff 4f       	sbci	r31, 0xFF	; 255
    1f24:	34 91       	lpm	r19, Z
    1f26:	fc 01       	movw	r30, r24
    1f28:	ee 58       	subi	r30, 0x8E	; 142
    1f2a:	ff 4f       	sbci	r31, 0xFF	; 255
    1f2c:	e4 91       	lpm	r30, Z
    1f2e:	ee 23       	and	r30, r30
    1f30:	09 f4       	brne	.+2      	; 0x1f34 <__stack+0x1635>
    1f32:	c2 c0       	rjmp	.+388    	; 0x20b8 <__stack+0x17b9>
    1f34:	22 23       	and	r18, r18
    1f36:	39 f1       	breq	.+78     	; 0x1f86 <__stack+0x1687>
    1f38:	23 30       	cpi	r18, 0x03	; 3
    1f3a:	91 f0       	breq	.+36     	; 0x1f60 <__stack+0x1661>
    1f3c:	38 f4       	brcc	.+14     	; 0x1f4c <__stack+0x164d>
    1f3e:	21 30       	cpi	r18, 0x01	; 1
    1f40:	a9 f0       	breq	.+42     	; 0x1f6c <__stack+0x166d>
    1f42:	22 30       	cpi	r18, 0x02	; 2
    1f44:	01 f5       	brne	.+64     	; 0x1f86 <__stack+0x1687>
    1f46:	84 b5       	in	r24, 0x24	; 36
    1f48:	8f 7d       	andi	r24, 0xDF	; 223
    1f4a:	12 c0       	rjmp	.+36     	; 0x1f70 <__stack+0x1671>
    1f4c:	27 30       	cpi	r18, 0x07	; 7
    1f4e:	91 f0       	breq	.+36     	; 0x1f74 <__stack+0x1675>
    1f50:	28 30       	cpi	r18, 0x08	; 8
    1f52:	a1 f0       	breq	.+40     	; 0x1f7c <__stack+0x167d>
    1f54:	24 30       	cpi	r18, 0x04	; 4
    1f56:	b9 f4       	brne	.+46     	; 0x1f86 <__stack+0x1687>
    1f58:	80 91 80 00 	lds	r24, 0x0080	; 0x800080 <__TEXT_REGION_LENGTH__+0x7f8080>
    1f5c:	8f 7d       	andi	r24, 0xDF	; 223
    1f5e:	03 c0       	rjmp	.+6      	; 0x1f66 <__stack+0x1667>
    1f60:	80 91 80 00 	lds	r24, 0x0080	; 0x800080 <__TEXT_REGION_LENGTH__+0x7f8080>
    1f64:	8f 77       	andi	r24, 0x7F	; 127
    1f66:	80 93 80 00 	sts	0x0080, r24	; 0x800080 <__TEXT_REGION_LENGTH__+0x7f8080>
    1f6a:	0d c0       	rjmp	.+26     	; 0x1f86 <__stack+0x1687>
    1f6c:	84 b5       	in	r24, 0x24	; 36
    1f6e:	8f 77       	andi	r24, 0x7F	; 127
    1f70:	84 bd       	out	0x24, r24	; 36
    1f72:	09 c0       	rjmp	.+18     	; 0x1f86 <__stack+0x1687>
    1f74:	80 91 b0 00 	lds	r24, 0x00B0	; 0x8000b0 <__TEXT_REGION_LENGTH__+0x7f80b0>
    1f78:	8f 77       	andi	r24, 0x7F	; 127
    1f7a:	03 c0       	rjmp	.+6      	; 0x1f82 <__stack+0x1683>
    1f7c:	80 91 b0 00 	lds	r24, 0x00B0	; 0x8000b0 <__TEXT_REGION_LENGTH__+0x7f80b0>
    1f80:	8f 7d       	andi	r24, 0xDF	; 223
    1f82:	80 93 b0 00 	sts	0x00B0, r24	; 0x8000b0 <__TEXT_REGION_LENGTH__+0x7f80b0>
    1f86:	f0 e0       	ldi	r31, 0x00	; 0
    1f88:	ee 0f       	add	r30, r30
    1f8a:	ff 1f       	adc	r31, r31
    1f8c:	e8 59       	subi	r30, 0x98	; 152
    1f8e:	ff 4f       	sbci	r31, 0xFF	; 255
    1f90:	a5 91       	lpm	r26, Z+
    1f92:	b4 91       	lpm	r27, Z
    1f94:	ec 91       	ld	r30, X
    1f96:	e3 23       	and	r30, r19
    1f98:	09 f4       	brne	.+2      	; 0x1f9c <__stack+0x169d>
    1f9a:	8e c0       	rjmp	.+284    	; 0x20b8 <__stack+0x17b9>
    1f9c:	c9 82       	std	Y+1, r12	; 0x01
    1f9e:	da 82       	std	Y+2, r13	; 0x02
    1fa0:	eb 82       	std	Y+3, r14	; 0x03
    1fa2:	fc 82       	std	Y+4, r15	; 0x04
    1fa4:	89 81       	ldd	r24, Y+1	; 0x01
    1fa6:	9a 81       	ldd	r25, Y+2	; 0x02
    1fa8:	ab 81       	ldd	r26, Y+3	; 0x03
    1faa:	bc 81       	ldd	r27, Y+4	; 0x04
    1fac:	87 30       	cpi	r24, 0x07	; 7
    1fae:	92 4b       	sbci	r25, 0xB2	; 178
    1fb0:	a1 40       	sbci	r26, 0x01	; 1
    1fb2:	b1 05       	cpc	r27, r1
    1fb4:	60 f4       	brcc	.+24     	; 0x1fce <__stack+0x16cf>
    1fb6:	89 81       	ldd	r24, Y+1	; 0x01
    1fb8:	9a 81       	ldd	r25, Y+2	; 0x02
    1fba:	ab 81       	ldd	r26, Y+3	; 0x03
    1fbc:	bc 81       	ldd	r27, Y+4	; 0x04
    1fbe:	01 96       	adiw	r24, 0x01	; 1
    1fc0:	a1 1d       	adc	r26, r1
    1fc2:	b1 1d       	adc	r27, r1
    1fc4:	89 83       	std	Y+1, r24	; 0x01
    1fc6:	9a 83       	std	Y+2, r25	; 0x02
    1fc8:	ab 83       	std	Y+3, r26	; 0x03
    1fca:	bc 83       	std	Y+4, r27	; 0x04
    1fcc:	eb cf       	rjmp	.-42     	; 0x1fa4 <__stack+0x16a5>
    1fce:	20 91 12 01 	lds	r18, 0x0112	; 0x800112 <iiii1i1iii1ii>
    1fd2:	30 91 13 01 	lds	r19, 0x0113	; 0x800113 <iiii1i1iii1ii+0x1>
    1fd6:	80 91 12 01 	lds	r24, 0x0112	; 0x800112 <iiii1i1iii1ii>
    1fda:	90 91 13 01 	lds	r25, 0x0113	; 0x800113 <iiii1i1iii1ii+0x1>
    1fde:	28 17       	cp	r18, r24
    1fe0:	39 07       	cpc	r19, r25
    1fe2:	49 f0       	breq	.+18     	; 0x1ff6 <__stack+0x16f7>
    1fe4:	80 91 18 01 	lds	r24, 0x0118	; 0x800118 <i1i11i11ii1i1>
    1fe8:	90 91 19 01 	lds	r25, 0x0119	; 0x800119 <i1i11i11ii1i1+0x1>
    1fec:	90 93 0d 01 	sts	0x010D, r25	; 0x80010d <ii11i11ii1i1+0x1>
    1ff0:	80 93 0c 01 	sts	0x010C, r24	; 0x80010c <ii11i11ii1i1>
    1ff4:	08 c0       	rjmp	.+16     	; 0x2006 <__stack+0x1707>
    1ff6:	80 91 16 01 	lds	r24, 0x0116	; 0x800116 <i1ii1i11ii1i1>
    1ffa:	90 91 17 01 	lds	r25, 0x0117	; 0x800117 <i1ii1i11ii1i1+0x1>
    1ffe:	90 93 15 01 	sts	0x0115, r25	; 0x800115 <i1i1iiii11ii+0x1>
    2002:	80 93 14 01 	sts	0x0114, r24	; 0x800114 <i1i1iiii11ii>
    2006:	20 91 0a 01 	lds	r18, 0x010A	; 0x80010a <i1i1ii1ii11ii>
    200a:	30 91 0b 01 	lds	r19, 0x010B	; 0x80010b <i1i1ii1ii11ii+0x1>
    200e:	80 91 0a 01 	lds	r24, 0x010A	; 0x80010a <i1i1ii1ii11ii>
    2012:	90 91 0b 01 	lds	r25, 0x010B	; 0x80010b <i1i1ii1ii11ii+0x1>
    2016:	28 17       	cp	r18, r24
    2018:	39 07       	cpc	r19, r25
    201a:	19 f0       	breq	.+6      	; 0x2022 <__stack+0x1723>
    201c:	0e 94 92 01 	call	0x324	; 0x324 <_Z15iii1iii1iii1ii1v>
    2020:	0e c0       	rjmp	.+28     	; 0x203e <__stack+0x173f>
    2022:	80 91 12 01 	lds	r24, 0x0112	; 0x800112 <iiii1i1iii1ii>
    2026:	90 91 13 01 	lds	r25, 0x0113	; 0x800113 <iiii1i1iii1ii+0x1>
    202a:	60 91 16 01 	lds	r22, 0x0116	; 0x800116 <i1ii1i11ii1i1>
    202e:	70 91 17 01 	lds	r23, 0x0117	; 0x800117 <i1ii1i11ii1i1+0x1>
    2032:	0e 94 a3 10 	call	0x2146	; 0x2146 <__divmodhi4>
    2036:	90 93 0d 01 	sts	0x010D, r25	; 0x80010d <ii11i11ii1i1+0x1>
    203a:	80 93 0c 01 	sts	0x010C, r24	; 0x80010c <ii11i11ii1i1>
    203e:	80 91 09 00 	lds	r24, 0x0009	; 0x800009 <__TEXT_REGION_LENGTH__+0x7f8009>
    2042:	90 91 0a 00 	lds	r25, 0x000A	; 0x80000a <__TEXT_REGION_LENGTH__+0x7f800a>
    2046:	90 93 15 01 	sts	0x0115, r25	; 0x800115 <i1i1iiii11ii+0x1>
    204a:	80 93 14 01 	sts	0x0114, r24	; 0x800114 <i1i1iiii11ii>
    204e:	20 91 10 01 	lds	r18, 0x0110	; 0x800110 <i1ii1i1iii1ii>
    2052:	30 91 11 01 	lds	r19, 0x0111	; 0x800111 <i1ii1i1iii1ii+0x1>
    2056:	80 91 10 01 	lds	r24, 0x0110	; 0x800110 <i1ii1i1iii1ii>
    205a:	90 91 11 01 	lds	r25, 0x0111	; 0x800111 <i1ii1i1iii1ii+0x1>
    205e:	28 17       	cp	r18, r24
    2060:	39 07       	cpc	r19, r25
    2062:	19 f0       	breq	.+6      	; 0x206a <__stack+0x176b>
    2064:	0e 94 92 01 	call	0x324	; 0x324 <_Z15iii1iii1iii1ii1v>
    2068:	08 c0       	rjmp	.+16     	; 0x207a <__stack+0x177b>
    206a:	80 91 0a 01 	lds	r24, 0x010A	; 0x80010a <i1i1ii1ii11ii>
    206e:	90 91 0b 01 	lds	r25, 0x010B	; 0x80010b <i1i1ii1ii11ii+0x1>
    2072:	90 93 0f 01 	sts	0x010F, r25	; 0x80010f <ii1ii1i11ii1i1+0x1>
    2076:	80 93 0e 01 	sts	0x010E, r24	; 0x80010e <ii1ii1i11ii1i1>
    207a:	20 91 16 01 	lds	r18, 0x0116	; 0x800116 <i1ii1i11ii1i1>
    207e:	30 91 17 01 	lds	r19, 0x0117	; 0x800117 <i1ii1i11ii1i1+0x1>
    2082:	80 91 18 01 	lds	r24, 0x0118	; 0x800118 <i1i11i11ii1i1>
    2086:	90 91 19 01 	lds	r25, 0x0119	; 0x800119 <i1i11i11ii1i1+0x1>
    208a:	28 17       	cp	r18, r24
    208c:	39 07       	cpc	r19, r25
    208e:	49 f4       	brne	.+18     	; 0x20a2 <__stack+0x17a3>
    2090:	80 91 16 01 	lds	r24, 0x0116	; 0x800116 <i1ii1i11ii1i1>
    2094:	90 91 17 01 	lds	r25, 0x0117	; 0x800117 <i1ii1i11ii1i1+0x1>
    2098:	90 93 15 01 	sts	0x0115, r25	; 0x800115 <i1i1iiii11ii+0x1>
    209c:	80 93 14 01 	sts	0x0114, r24	; 0x800114 <i1i1iiii11ii>
    20a0:	08 c0       	rjmp	.+16     	; 0x20b2 <__stack+0x17b3>
    20a2:	80 91 0a 01 	lds	r24, 0x010A	; 0x80010a <i1i1ii1ii11ii>
    20a6:	90 91 0b 01 	lds	r25, 0x010B	; 0x80010b <i1i1ii1ii11ii+0x1>
    20aa:	90 93 0f 01 	sts	0x010F, r25	; 0x80010f <ii1ii1i11ii1i1+0x1>
    20ae:	80 93 0e 01 	sts	0x010E, r24	; 0x80010e <ii1ii1i11ii1i1>
    20b2:	0e 94 88 01 	call	0x310	; 0x310 <_Z14serialEventRunv>
    20b6:	3c ce       	rjmp	.-904    	; 0x1d30 <__stack+0x1431>
    20b8:	c9 82       	std	Y+1, r12	; 0x01
    20ba:	da 82       	std	Y+2, r13	; 0x02
    20bc:	eb 82       	std	Y+3, r14	; 0x03
    20be:	fc 82       	std	Y+4, r15	; 0x04
    20c0:	89 81       	ldd	r24, Y+1	; 0x01
    20c2:	9a 81       	ldd	r25, Y+2	; 0x02
    20c4:	ab 81       	ldd	r26, Y+3	; 0x03
    20c6:	bc 81       	ldd	r27, Y+4	; 0x04
    20c8:	8e 30       	cpi	r24, 0x0E	; 14
    20ca:	94 46       	sbci	r25, 0x64	; 100
    20cc:	a3 40       	sbci	r26, 0x03	; 3
    20ce:	b1 05       	cpc	r27, r1
    20d0:	08 f0       	brcs	.+2      	; 0x20d4 <__stack+0x17d5>
    20d2:	64 cf       	rjmp	.-312    	; 0x1f9c <__stack+0x169d>
    20d4:	89 81       	ldd	r24, Y+1	; 0x01
    20d6:	9a 81       	ldd	r25, Y+2	; 0x02
    20d8:	ab 81       	ldd	r26, Y+3	; 0x03
    20da:	bc 81       	ldd	r27, Y+4	; 0x04
    20dc:	01 96       	adiw	r24, 0x01	; 1
    20de:	a1 1d       	adc	r26, r1
    20e0:	b1 1d       	adc	r27, r1
    20e2:	89 83       	std	Y+1, r24	; 0x01
    20e4:	9a 83       	std	Y+2, r25	; 0x02
    20e6:	ab 83       	std	Y+3, r26	; 0x03
    20e8:	bc 83       	std	Y+4, r27	; 0x04
    20ea:	ea cf       	rjmp	.-44     	; 0x20c0 <__stack+0x17c1>

000020ec <_GLOBAL__sub_I___vector_18>:
    20ec:	e7 e5       	ldi	r30, 0x57	; 87
    20ee:	f1 e0       	ldi	r31, 0x01	; 1
    20f0:	13 82       	std	Z+3, r1	; 0x03
    20f2:	12 82       	std	Z+2, r1	; 0x02
    20f4:	88 ee       	ldi	r24, 0xE8	; 232
    20f6:	93 e0       	ldi	r25, 0x03	; 3
    20f8:	a0 e0       	ldi	r26, 0x00	; 0
    20fa:	b0 e0       	ldi	r27, 0x00	; 0
    20fc:	84 83       	std	Z+4, r24	; 0x04
    20fe:	95 83       	std	Z+5, r25	; 0x05
    2100:	a6 83       	std	Z+6, r26	; 0x06
    2102:	b7 83       	std	Z+7, r27	; 0x07
    2104:	8e e1       	ldi	r24, 0x1E	; 30
    2106:	91 e0       	ldi	r25, 0x01	; 1
    2108:	91 83       	std	Z+1, r25	; 0x01
    210a:	80 83       	st	Z, r24
    210c:	85 ec       	ldi	r24, 0xC5	; 197
    210e:	90 e0       	ldi	r25, 0x00	; 0
    2110:	95 87       	std	Z+13, r25	; 0x0d
    2112:	84 87       	std	Z+12, r24	; 0x0c
    2114:	84 ec       	ldi	r24, 0xC4	; 196
    2116:	90 e0       	ldi	r25, 0x00	; 0
    2118:	97 87       	std	Z+15, r25	; 0x0f
    211a:	86 87       	std	Z+14, r24	; 0x0e
    211c:	80 ec       	ldi	r24, 0xC0	; 192
    211e:	90 e0       	ldi	r25, 0x00	; 0
    2120:	91 8b       	std	Z+17, r25	; 0x11
    2122:	80 8b       	std	Z+16, r24	; 0x10
    2124:	81 ec       	ldi	r24, 0xC1	; 193
    2126:	90 e0       	ldi	r25, 0x00	; 0
    2128:	93 8b       	std	Z+19, r25	; 0x13
    212a:	82 8b       	std	Z+18, r24	; 0x12
    212c:	82 ec       	ldi	r24, 0xC2	; 194
    212e:	90 e0       	ldi	r25, 0x00	; 0
    2130:	95 8b       	std	Z+21, r25	; 0x15
    2132:	84 8b       	std	Z+20, r24	; 0x14
    2134:	86 ec       	ldi	r24, 0xC6	; 198
    2136:	90 e0       	ldi	r25, 0x00	; 0
    2138:	97 8b       	std	Z+23, r25	; 0x17
    213a:	86 8b       	std	Z+22, r24	; 0x16
    213c:	11 8e       	std	Z+25, r1	; 0x19
    213e:	12 8e       	std	Z+26, r1	; 0x1a
    2140:	13 8e       	std	Z+27, r1	; 0x1b
    2142:	14 8e       	std	Z+28, r1	; 0x1c
    2144:	08 95       	ret

00002146 <__divmodhi4>:
    2146:	97 fb       	bst	r25, 7
    2148:	07 2e       	mov	r0, r23
    214a:	16 f4       	brtc	.+4      	; 0x2150 <__divmodhi4+0xa>
    214c:	00 94       	com	r0
    214e:	07 d0       	rcall	.+14     	; 0x215e <__divmodhi4_neg1>
    2150:	77 fd       	sbrc	r23, 7
    2152:	09 d0       	rcall	.+18     	; 0x2166 <__divmodhi4_neg2>
    2154:	0e 94 b7 10 	call	0x216e	; 0x216e <__udivmodhi4>
    2158:	07 fc       	sbrc	r0, 7
    215a:	05 d0       	rcall	.+10     	; 0x2166 <__divmodhi4_neg2>
    215c:	3e f4       	brtc	.+14     	; 0x216c <__divmodhi4_exit>

0000215e <__divmodhi4_neg1>:
    215e:	90 95       	com	r25
    2160:	81 95       	neg	r24
    2162:	9f 4f       	sbci	r25, 0xFF	; 255
    2164:	08 95       	ret

00002166 <__divmodhi4_neg2>:
    2166:	70 95       	com	r23
    2168:	61 95       	neg	r22
    216a:	7f 4f       	sbci	r23, 0xFF	; 255

0000216c <__divmodhi4_exit>:
    216c:	08 95       	ret

0000216e <__udivmodhi4>:
    216e:	aa 1b       	sub	r26, r26
    2170:	bb 1b       	sub	r27, r27
    2172:	51 e1       	ldi	r21, 0x11	; 17
    2174:	07 c0       	rjmp	.+14     	; 0x2184 <__udivmodhi4_ep>

00002176 <__udivmodhi4_loop>:
    2176:	aa 1f       	adc	r26, r26
    2178:	bb 1f       	adc	r27, r27
    217a:	a6 17       	cp	r26, r22
    217c:	b7 07       	cpc	r27, r23
    217e:	10 f0       	brcs	.+4      	; 0x2184 <__udivmodhi4_ep>
    2180:	a6 1b       	sub	r26, r22
    2182:	b7 0b       	sbc	r27, r23

00002184 <__udivmodhi4_ep>:
    2184:	88 1f       	adc	r24, r24
    2186:	99 1f       	adc	r25, r25
    2188:	5a 95       	dec	r21
    218a:	a9 f7       	brne	.-22     	; 0x2176 <__udivmodhi4_loop>
    218c:	80 95       	com	r24
    218e:	90 95       	com	r25
    2190:	bc 01       	movw	r22, r24
    2192:	cd 01       	movw	r24, r26
    2194:	08 95       	ret

00002196 <__tablejump2__>:
    2196:	ee 0f       	add	r30, r30
    2198:	ff 1f       	adc	r31, r31
    219a:	05 90       	lpm	r0, Z+
    219c:	f4 91       	lpm	r31, Z
    219e:	e0 2d       	mov	r30, r0
    21a0:	09 94       	ijmp

000021a2 <abort>:
    21a2:	81 e0       	ldi	r24, 0x01	; 1
    21a4:	90 e0       	ldi	r25, 0x00	; 0
    21a6:	f8 94       	cli
    21a8:	0c 94 d6 10 	jmp	0x21ac	; 0x21ac <_exit>

000021ac <_exit>:
    21ac:	f8 94       	cli

000021ae <__stop_program>:
    21ae:	ff cf       	rjmp	.-2      	; 0x21ae <__stop_program>
